

Microchip MPLAB XC8 Assembler V2.40 build 20220703182018 
                                                                                               Sat Nov 12 15:34:49 2022

Microchip MPLAB XC8 C Compiler v2.40 (Free license) build 20220703182018 Og1 
     1                           	processor	16F1769
     2                           	pagewidth 120
     3                           	opt	flic
     4                           	psect	idataBANK2,global,class=CODE,delta=2,noexec
     5                           	psect	stringtext1,global,class=STRCODE,delta=2,noexec
     6                           	psect	stringtext2,global,class=STRCODE,delta=2,noexec
     7                           	psect	stringtext3,global,class=STRCODE,delta=2,noexec
     8                           	psect	stringtext4,global,class=STRCODE,delta=2,noexec
     9                           	psect	stringtext5,global,class=STRCODE,delta=2,noexec
    10                           	psect	stringtext6,global,class=STRCODE,delta=2,noexec
    11                           	psect	stringtext7,global,class=STRCODE,delta=2,noexec
    12                           	psect	stringtext8,global,class=STRCODE,delta=2,noexec
    13                           	psect	stringtext9,global,class=STRCODE,delta=2,noexec
    14                           	psect	stringtext10,global,class=STRCODE,delta=2,noexec
    15                           	psect	stringtext11,global,class=STRCODE,delta=2,noexec
    16                           	psect	stringtext12,global,class=STRCODE,delta=2,noexec
    17                           	psect	stringtext13,global,class=STRCODE,delta=2,noexec
    18                           	psect	stringtext14,global,class=STRCODE,delta=2,noexec
    19                           	psect	stringtext15,global,class=STRCODE,delta=2,noexec
    20                           	psect	stringtext16,global,class=STRCODE,delta=2,noexec
    21                           	psect	stringtext17,global,class=STRCODE,delta=2,noexec
    22                           	psect	stringtext18,global,class=STRCODE,delta=2,noexec
    23                           	psect	cinit,global,class=CODE,merge=1,delta=2
    24                           	psect	bssCOMMON,global,class=COMMON,space=1,delta=1,noexec
    25                           	psect	bssBANK1,global,class=BANK1,space=1,delta=1,noexec
    26                           	psect	bssBANK2,global,class=BANK2,space=1,delta=1,noexec
    27                           	psect	dataBANK2,global,class=BANK2,space=1,delta=1,noexec
    28                           	psect	clrtext,global,class=CODE,delta=2
    29                           	psect	cstackBANK2,global,class=BANK2,space=1,delta=1,noexec
    30                           	psect	cstackBANK1,global,class=BANK1,space=1,delta=1,noexec
    31                           	psect	cstackCOMMON,global,class=COMMON,space=1,delta=1,noexec
    32                           	psect	cstackBANK0,global,class=BANK0,space=1,delta=1,noexec
    33                           	psect	maintext,global,class=CODE,merge=1,split=1,delta=2
    34                           	psect	text1,local,class=CODE,merge=1,delta=2
    35                           	psect	text2,local,class=CODE,merge=1,delta=2,group=2
    36                           	psect	text3,local,class=CODE,merge=1,delta=2,group=2
    37                           	psect	text4,local,class=CODE,merge=1,delta=2,group=2
    38                           	psect	text5,local,class=CODE,merge=1,delta=2,group=2
    39                           	psect	text6,local,class=CODE,merge=1,delta=2,group=1
    40                           	psect	text7,local,class=CODE,merge=1,delta=2,group=1
    41                           	psect	text8,local,class=CODE,merge=1,delta=2,group=1
    42                           	psect	text9,local,class=CODE,merge=1,delta=2,group=1
    43                           	psect	text10,local,class=CODE,merge=1,delta=2,group=2
    44                           	psect	text11,local,class=CODE,merge=1,delta=2,group=1
    45                           	psect	text12,local,class=CODE,merge=1,delta=2,group=1
    46                           	psect	text13,local,class=CODE,merge=1,delta=2,group=1
    47                           	psect	text14,local,class=CODE,merge=1,delta=2,group=1
    48                           	psect	text15,local,class=CODE,merge=1,delta=2
    49                           	psect	text16,local,class=CODE,merge=1,delta=2
    50                           	psect	text17,local,class=CODE,merge=1,delta=2
    51                           	psect	text18,local,class=CODE,merge=1,delta=2
    52                           	psect	text19,local,class=CODE,merge=1,delta=2
    53                           	psect	text20,local,class=CODE,merge=1,delta=2
    54                           	psect	text21,local,class=CODE,merge=1,delta=2
    55                           	psect	text22,local,class=CODE,merge=1,delta=2
    56                           	psect	text23,local,class=CODE,merge=1,delta=2,group=1
    57                           	psect	text24,local,class=CODE,merge=1,delta=2
    58                           	psect	text25,local,class=CODE,merge=1,delta=2
    59                           	psect	intentry,global,class=CODE,delta=2
    60                           	psect	text27,local,class=CODE,merge=1,delta=2
    61                           	psect	text28,local,class=CODE,merge=1,delta=2
    62                           	psect	idloc,global,abs,ovrld,class=IDLOC,space=5,delta=2,noexec
    63                           	psect	config,global,abs,ovrld,class=CONFIG,space=4,delta=2,noexec
    64                           	dabs	1,0x620,48
    65                           	dabs	1,0x5A0,80
    66                           	dabs	1,0x528,72
    67                           	dabs	1,0x2328,0,_sine_table
    68                           	dabs	1,0x7E,2
    69     0000                     
    70                           ; Version 2.40
    71                           ; Generated 17/11/2021 GMT
    72                           ; 
    73                           ; Copyright © 2021, Microchip Technology Inc. and its subsidiaries ("Microchip")
    74                           ; All rights reserved.
    75                           ; 
    76                           ; This software is developed by Microchip Technology Inc. and its subsidiaries ("Microch
      +                          ip").
    77                           ; 
    78                           ; Redistribution and use in source and binary forms, with or without modification, are
    79                           ; permitted provided that the following conditions are met:
    80                           ; 
    81                           ;     1. Redistributions of source code must retain the above copyright notice, this lis
      +                          t of
    82                           ;        conditions and the following disclaimer.
    83                           ; 
    84                           ;     2. Redistributions in binary form must reproduce the above copyright notice, this 
      +                          list
    85                           ;        of conditions and the following disclaimer in the documentation and/or other
    86                           ;        materials provided with the distribution. Publication is not required when
    87                           ;        this file is used in an embedded application.
    88                           ; 
    89                           ;     3. Microchip's name may not be used to endorse or promote products derived from th
      +                          is
    90                           ;        software without specific prior written permission.
    91                           ; 
    92                           ; THIS SOFTWARE IS PROVIDED BY MICROCHIP "AS IS" AND ANY EXPRESS OR IMPLIED WARRANTIES,
    93                           ; INCLUDING, BUT NOT LIMITED TO, THE IMPLIED WARRANTIES OF MERCHANTABILITY AND FITNESS F
      +                          OR
    94                           ; PURPOSE ARE DISCLAIMED.  IN NO EVENT SHALL MICROCHIP BE LIABLE FOR ANY DIRECT, INDIREC
      +                          T,
    95                           ; INCIDENTAL, SPECIAL, EXEMPLARY, OR CONSEQUENTIAL DAMAGES (INCLUDING BUT NOT LIMITED TO
    96                           ; PROCUREMENT OF SUBSTITUTE GOODS OR SERVICES; LOSS OF USE, DATA OR PROFITS; OR BUSINESS
    97                           ; INTERRUPTION) HOWSOEVER CAUSED AND ON ANY THEORY OF LIABILITY, WHETHER IN CONTRACT, ST
      +                          RICT
    98                           ; LIABILITY, OR TORT (INCLUDING NEGLIGENCE OR OTHERWISE) ARISING IN ANY WAY OUT OF THE U
      +                          SE OF
    99                           ; THIS SOFTWARE, EVEN IF ADVISED OF THE POSSIBILITY OF SUCH DAMAGE.
   100                           ; 
   101                           ; 
   102                           ; Code-generator required, PIC16F1769 Definitions
   103                           ; 
   104                           ; SFR Addresses
   105     0000                     	;# 
   106     0001                     	;# 
   107     0002                     	;# 
   108     0003                     	;# 
   109     0004                     	;# 
   110     0005                     	;# 
   111     0006                     	;# 
   112     0007                     	;# 
   113     0008                     	;# 
   114     0009                     	;# 
   115     000A                     	;# 
   116     000B                     	;# 
   117     000C                     	;# 
   118     000D                     	;# 
   119     000E                     	;# 
   120     0011                     	;# 
   121     0012                     	;# 
   122     0013                     	;# 
   123     0014                     	;# 
   124     0015                     	;# 
   125     0016                     	;# 
   126     0016                     	;# 
   127     0017                     	;# 
   128     0018                     	;# 
   129     0019                     	;# 
   130     001A                     	;# 
   131     001A                     	;# 
   132     001B                     	;# 
   133     001B                     	;# 
   134     001C                     	;# 
   135     001D                     	;# 
   136     001E                     	;# 
   137     001F                     	;# 
   138     008C                     	;# 
   139     008D                     	;# 
   140     008E                     	;# 
   141     0091                     	;# 
   142     0092                     	;# 
   143     0093                     	;# 
   144     0094                     	;# 
   145     0095                     	;# 
   146     0096                     	;# 
   147     0097                     	;# 
   148     0098                     	;# 
   149     0099                     	;# 
   150     009A                     	;# 
   151     009B                     	;# 
   152     009B                     	;# 
   153     009C                     	;# 
   154     009D                     	;# 
   155     009E                     	;# 
   156     009F                     	;# 
   157     010C                     	;# 
   158     010D                     	;# 
   159     010E                     	;# 
   160     010F                     	;# 
   161     0110                     	;# 
   162     0111                     	;# 
   163     0112                     	;# 
   164     0113                     	;# 
   165     0114                     	;# 
   166     0115                     	;# 
   167     0116                     	;# 
   168     0117                     	;# 
   169     0118                     	;# 
   170     0119                     	;# 
   171     011A                     	;# 
   172     011B                     	;# 
   173     011C                     	;# 
   174     011D                     	;# 
   175     011E                     	;# 
   176     011F                     	;# 
   177     018C                     	;# 
   178     018D                     	;# 
   179     018E                     	;# 
   180     0191                     	;# 
   181     0191                     	;# 
   182     0192                     	;# 
   183     0193                     	;# 
   184     0193                     	;# 
   185     0194                     	;# 
   186     0195                     	;# 
   187     0196                     	;# 
   188     0197                     	;# 
   189     0199                     	;# 
   190     0199                     	;# 
   191     0199                     	;# 
   192     019A                     	;# 
   193     019A                     	;# 
   194     019A                     	;# 
   195     019B                     	;# 
   196     019B                     	;# 
   197     019B                     	;# 
   198     019B                     	;# 
   199     019B                     	;# 
   200     019C                     	;# 
   201     019C                     	;# 
   202     019C                     	;# 
   203     019D                     	;# 
   204     019D                     	;# 
   205     019D                     	;# 
   206     019E                     	;# 
   207     019E                     	;# 
   208     019E                     	;# 
   209     019F                     	;# 
   210     019F                     	;# 
   211     019F                     	;# 
   212     019F                     	;# 
   213     019F                     	;# 
   214     020C                     	;# 
   215     020D                     	;# 
   216     020E                     	;# 
   217     0211                     	;# 
   218     0211                     	;# 
   219     0212                     	;# 
   220     0212                     	;# 
   221     0213                     	;# 
   222     0213                     	;# 
   223     0214                     	;# 
   224     0214                     	;# 
   225     0215                     	;# 
   226     0215                     	;# 
   227     0215                     	;# 
   228     0215                     	;# 
   229     0216                     	;# 
   230     0216                     	;# 
   231     0217                     	;# 
   232     0217                     	;# 
   233     021D                     	;# 
   234     021E                     	;# 
   235     021F                     	;# 
   236     028C                     	;# 
   237     028D                     	;# 
   238     028E                     	;# 
   239     0291                     	;# 
   240     0291                     	;# 
   241     0292                     	;# 
   242     0293                     	;# 
   243     0294                     	;# 
   244     0298                     	;# 
   245     0298                     	;# 
   246     0299                     	;# 
   247     029A                     	;# 
   248     029B                     	;# 
   249     029E                     	;# 
   250     030C                     	;# 
   251     030D                     	;# 
   252     030E                     	;# 
   253     031B                     	;# 
   254     031C                     	;# 
   255     031D                     	;# 
   256     031E                     	;# 
   257     031F                     	;# 
   258     038C                     	;# 
   259     038D                     	;# 
   260     038E                     	;# 
   261     0391                     	;# 
   262     0392                     	;# 
   263     0393                     	;# 
   264     0394                     	;# 
   265     0395                     	;# 
   266     0396                     	;# 
   267     0397                     	;# 
   268     0398                     	;# 
   269     0399                     	;# 
   270     039B                     	;# 
   271     039C                     	;# 
   272     039D                     	;# 
   273     039E                     	;# 
   274     039F                     	;# 
   275     040E                     	;# 
   276     0413                     	;# 
   277     0413                     	;# 
   278     0414                     	;# 
   279     0414                     	;# 
   280     0415                     	;# 
   281     0416                     	;# 
   282     0417                     	;# 
   283     0418                     	;# 
   284     041A                     	;# 
   285     041A                     	;# 
   286     041B                     	;# 
   287     041B                     	;# 
   288     041C                     	;# 
   289     041D                     	;# 
   290     041E                     	;# 
   291     041F                     	;# 
   292     0493                     	;# 
   293     0493                     	;# 
   294     0494                     	;# 
   295     0495                     	;# 
   296     0496                     	;# 
   297     049A                     	;# 
   298     049A                     	;# 
   299     049B                     	;# 
   300     049C                     	;# 
   301     049D                     	;# 
   302     050F                     	;# 
   303     0510                     	;# 
   304     0511                     	;# 
   305     0512                     	;# 
   306     0513                     	;# 
   307     0514                     	;# 
   308     0515                     	;# 
   309     0516                     	;# 
   310     0590                     	;# 
   311     0591                     	;# 
   312     0592                     	;# 
   313     0592                     	;# 
   314     0592                     	;# 
   315     0593                     	;# 
   316     0593                     	;# 
   317     0594                     	;# 
   318     0595                     	;# 
   319     0595                     	;# 
   320     0595                     	;# 
   321     0596                     	;# 
   322     0596                     	;# 
   323     0597                     	;# 
   324     0598                     	;# 
   325     0598                     	;# 
   326     0599                     	;# 
   327     059A                     	;# 
   328     059A                     	;# 
   329     0617                     	;# 
   330     0617                     	;# 
   331     0618                     	;# 
   332     0619                     	;# 
   333     061A                     	;# 
   334     061A                     	;# 
   335     061B                     	;# 
   336     061C                     	;# 
   337     068D                     	;# 
   338     068E                     	;# 
   339     068F                     	;# 
   340     0690                     	;# 
   341     0691                     	;# 
   342     0692                     	;# 
   343     0693                     	;# 
   344     0694                     	;# 
   345     0695                     	;# 
   346     0696                     	;# 
   347     0697                     	;# 
   348     0698                     	;# 
   349     0699                     	;# 
   350     069A                     	;# 
   351     069B                     	;# 
   352     069C                     	;# 
   353     069D                     	;# 
   354     069E                     	;# 
   355     069F                     	;# 
   356     070D                     	;# 
   357     070E                     	;# 
   358     070F                     	;# 
   359     0710                     	;# 
   360     0711                     	;# 
   361     0712                     	;# 
   362     0713                     	;# 
   363     0714                     	;# 
   364     0715                     	;# 
   365     0716                     	;# 
   366     0717                     	;# 
   367     0718                     	;# 
   368     0719                     	;# 
   369     071A                     	;# 
   370     071B                     	;# 
   371     071C                     	;# 
   372     071D                     	;# 
   373     071E                     	;# 
   374     071F                     	;# 
   375     0794                     	;# 
   376     0795                     	;# 
   377     0796                     	;# 
   378     0797                     	;# 
   379     0798                     	;# 
   380     0799                     	;# 
   381     079A                     	;# 
   382     079B                     	;# 
   383     079C                     	;# 
   384     079D                     	;# 
   385     079E                     	;# 
   386     079F                     	;# 
   387     0D8E                     	;# 
   388     0D8F                     	;# 
   389     0D90                     	;# 
   390     0D91                     	;# 
   391     0D91                     	;# 
   392     0D92                     	;# 
   393     0D93                     	;# 
   394     0D93                     	;# 
   395     0D94                     	;# 
   396     0D95                     	;# 
   397     0D95                     	;# 
   398     0D96                     	;# 
   399     0D97                     	;# 
   400     0D97                     	;# 
   401     0D98                     	;# 
   402     0D99                     	;# 
   403     0D99                     	;# 
   404     0D9A                     	;# 
   405     0D9B                     	;# 
   406     0D9C                     	;# 
   407     0D9C                     	;# 
   408     0D9D                     	;# 
   409     0D9D                     	;# 
   410     0D9E                     	;# 
   411     0D9F                     	;# 
   412     0DA0                     	;# 
   413     0DA1                     	;# 
   414     0DA1                     	;# 
   415     0DA2                     	;# 
   416     0DA3                     	;# 
   417     0DA3                     	;# 
   418     0DA4                     	;# 
   419     0DA5                     	;# 
   420     0DA5                     	;# 
   421     0DA6                     	;# 
   422     0DA7                     	;# 
   423     0DA7                     	;# 
   424     0DA8                     	;# 
   425     0DA9                     	;# 
   426     0DA9                     	;# 
   427     0DAA                     	;# 
   428     0DAB                     	;# 
   429     0DAC                     	;# 
   430     0DAC                     	;# 
   431     0DAD                     	;# 
   432     0DAD                     	;# 
   433     0DAE                     	;# 
   434     0DAF                     	;# 
   435     0DB0                     	;# 
   436     0E0F                     	;# 
   437     0E10                     	;# 
   438     0E11                     	;# 
   439     0E12                     	;# 
   440     0E13                     	;# 
   441     0E14                     	;# 
   442     0E15                     	;# 
   443     0E16                     	;# 
   444     0E17                     	;# 
   445     0E19                     	;# 
   446     0E19                     	;# 
   447     0E19                     	;# 
   448     0E1A                     	;# 
   449     0E1B                     	;# 
   450     0E1C                     	;# 
   451     0E1C                     	;# 
   452     0E1C                     	;# 
   453     0E1D                     	;# 
   454     0E1E                     	;# 
   455     0E1F                     	;# 
   456     0E1F                     	;# 
   457     0E1F                     	;# 
   458     0E20                     	;# 
   459     0E21                     	;# 
   460     0E22                     	;# 
   461     0E24                     	;# 
   462     0E25                     	;# 
   463     0E28                     	;# 
   464     0E29                     	;# 
   465     0E2A                     	;# 
   466     0E2B                     	;# 
   467     0E2C                     	;# 
   468     0E2D                     	;# 
   469     0E2E                     	;# 
   470     0E2F                     	;# 
   471     0E30                     	;# 
   472     0E31                     	;# 
   473     0E32                     	;# 
   474     0E33                     	;# 
   475     0E34                     	;# 
   476     0E35                     	;# 
   477     0E90                     	;# 
   478     0E91                     	;# 
   479     0E92                     	;# 
   480     0E94                     	;# 
   481     0E95                     	;# 
   482     0E9C                     	;# 
   483     0E9D                     	;# 
   484     0E9E                     	;# 
   485     0E9F                     	;# 
   486     0EA0                     	;# 
   487     0EA1                     	;# 
   488     0EA2                     	;# 
   489     0EA3                     	;# 
   490     0EA4                     	;# 
   491     0EA5                     	;# 
   492     0EA6                     	;# 
   493     0EA7                     	;# 
   494     0F0F                     	;# 
   495     0F10                     	;# 
   496     0F11                     	;# 
   497     0F12                     	;# 
   498     0F13                     	;# 
   499     0F14                     	;# 
   500     0F15                     	;# 
   501     0F16                     	;# 
   502     0F17                     	;# 
   503     0F18                     	;# 
   504     0F19                     	;# 
   505     0F1A                     	;# 
   506     0F1B                     	;# 
   507     0F1C                     	;# 
   508     0F1D                     	;# 
   509     0F1E                     	;# 
   510     0F1F                     	;# 
   511     0F20                     	;# 
   512     0F21                     	;# 
   513     0F22                     	;# 
   514     0F23                     	;# 
   515     0F24                     	;# 
   516     0F25                     	;# 
   517     0F26                     	;# 
   518     0F27                     	;# 
   519     0F28                     	;# 
   520     0F29                     	;# 
   521     0F2A                     	;# 
   522     0F2B                     	;# 
   523     0F2C                     	;# 
   524     0F2D                     	;# 
   525     0FE4                     	;# 
   526     0FE5                     	;# 
   527     0FE6                     	;# 
   528     0FE7                     	;# 
   529     0FE8                     	;# 
   530     0FE9                     	;# 
   531     0FEA                     	;# 
   532     0FEB                     	;# 
   533     0FED                     	;# 
   534     0FEE                     	;# 
   535     0FEF                     	;# 
   536     0000                     	;# 
   537     0001                     	;# 
   538     0002                     	;# 
   539     0003                     	;# 
   540     0004                     	;# 
   541     0005                     	;# 
   542     0006                     	;# 
   543     0007                     	;# 
   544     0008                     	;# 
   545     0009                     	;# 
   546     000A                     	;# 
   547     000B                     	;# 
   548     000C                     	;# 
   549     000D                     	;# 
   550     000E                     	;# 
   551     0011                     	;# 
   552     0012                     	;# 
   553     0013                     	;# 
   554     0014                     	;# 
   555     0015                     	;# 
   556     0016                     	;# 
   557     0016                     	;# 
   558     0017                     	;# 
   559     0018                     	;# 
   560     0019                     	;# 
   561     001A                     	;# 
   562     001A                     	;# 
   563     001B                     	;# 
   564     001B                     	;# 
   565     001C                     	;# 
   566     001D                     	;# 
   567     001E                     	;# 
   568     001F                     	;# 
   569     008C                     	;# 
   570     008D                     	;# 
   571     008E                     	;# 
   572     0091                     	;# 
   573     0092                     	;# 
   574     0093                     	;# 
   575     0094                     	;# 
   576     0095                     	;# 
   577     0096                     	;# 
   578     0097                     	;# 
   579     0098                     	;# 
   580     0099                     	;# 
   581     009A                     	;# 
   582     009B                     	;# 
   583     009B                     	;# 
   584     009C                     	;# 
   585     009D                     	;# 
   586     009E                     	;# 
   587     009F                     	;# 
   588     010C                     	;# 
   589     010D                     	;# 
   590     010E                     	;# 
   591     010F                     	;# 
   592     0110                     	;# 
   593     0111                     	;# 
   594     0112                     	;# 
   595     0113                     	;# 
   596     0114                     	;# 
   597     0115                     	;# 
   598     0116                     	;# 
   599     0117                     	;# 
   600     0118                     	;# 
   601     0119                     	;# 
   602     011A                     	;# 
   603     011B                     	;# 
   604     011C                     	;# 
   605     011D                     	;# 
   606     011E                     	;# 
   607     011F                     	;# 
   608     018C                     	;# 
   609     018D                     	;# 
   610     018E                     	;# 
   611     0191                     	;# 
   612     0191                     	;# 
   613     0192                     	;# 
   614     0193                     	;# 
   615     0193                     	;# 
   616     0194                     	;# 
   617     0195                     	;# 
   618     0196                     	;# 
   619     0197                     	;# 
   620     0199                     	;# 
   621     0199                     	;# 
   622     0199                     	;# 
   623     019A                     	;# 
   624     019A                     	;# 
   625     019A                     	;# 
   626     019B                     	;# 
   627     019B                     	;# 
   628     019B                     	;# 
   629     019B                     	;# 
   630     019B                     	;# 
   631     019C                     	;# 
   632     019C                     	;# 
   633     019C                     	;# 
   634     019D                     	;# 
   635     019D                     	;# 
   636     019D                     	;# 
   637     019E                     	;# 
   638     019E                     	;# 
   639     019E                     	;# 
   640     019F                     	;# 
   641     019F                     	;# 
   642     019F                     	;# 
   643     019F                     	;# 
   644     019F                     	;# 
   645     020C                     	;# 
   646     020D                     	;# 
   647     020E                     	;# 
   648     0211                     	;# 
   649     0211                     	;# 
   650     0212                     	;# 
   651     0212                     	;# 
   652     0213                     	;# 
   653     0213                     	;# 
   654     0214                     	;# 
   655     0214                     	;# 
   656     0215                     	;# 
   657     0215                     	;# 
   658     0215                     	;# 
   659     0215                     	;# 
   660     0216                     	;# 
   661     0216                     	;# 
   662     0217                     	;# 
   663     0217                     	;# 
   664     021D                     	;# 
   665     021E                     	;# 
   666     021F                     	;# 
   667     028C                     	;# 
   668     028D                     	;# 
   669     028E                     	;# 
   670     0291                     	;# 
   671     0291                     	;# 
   672     0292                     	;# 
   673     0293                     	;# 
   674     0294                     	;# 
   675     0298                     	;# 
   676     0298                     	;# 
   677     0299                     	;# 
   678     029A                     	;# 
   679     029B                     	;# 
   680     029E                     	;# 
   681     030C                     	;# 
   682     030D                     	;# 
   683     030E                     	;# 
   684     031B                     	;# 
   685     031C                     	;# 
   686     031D                     	;# 
   687     031E                     	;# 
   688     031F                     	;# 
   689     038C                     	;# 
   690     038D                     	;# 
   691     038E                     	;# 
   692     0391                     	;# 
   693     0392                     	;# 
   694     0393                     	;# 
   695     0394                     	;# 
   696     0395                     	;# 
   697     0396                     	;# 
   698     0397                     	;# 
   699     0398                     	;# 
   700     0399                     	;# 
   701     039B                     	;# 
   702     039C                     	;# 
   703     039D                     	;# 
   704     039E                     	;# 
   705     039F                     	;# 
   706     040E                     	;# 
   707     0413                     	;# 
   708     0413                     	;# 
   709     0414                     	;# 
   710     0414                     	;# 
   711     0415                     	;# 
   712     0416                     	;# 
   713     0417                     	;# 
   714     0418                     	;# 
   715     041A                     	;# 
   716     041A                     	;# 
   717     041B                     	;# 
   718     041B                     	;# 
   719     041C                     	;# 
   720     041D                     	;# 
   721     041E                     	;# 
   722     041F                     	;# 
   723     0493                     	;# 
   724     0493                     	;# 
   725     0494                     	;# 
   726     0495                     	;# 
   727     0496                     	;# 
   728     049A                     	;# 
   729     049A                     	;# 
   730     049B                     	;# 
   731     049C                     	;# 
   732     049D                     	;# 
   733     050F                     	;# 
   734     0510                     	;# 
   735     0511                     	;# 
   736     0512                     	;# 
   737     0513                     	;# 
   738     0514                     	;# 
   739     0515                     	;# 
   740     0516                     	;# 
   741     0590                     	;# 
   742     0591                     	;# 
   743     0592                     	;# 
   744     0592                     	;# 
   745     0592                     	;# 
   746     0593                     	;# 
   747     0593                     	;# 
   748     0594                     	;# 
   749     0595                     	;# 
   750     0595                     	;# 
   751     0595                     	;# 
   752     0596                     	;# 
   753     0596                     	;# 
   754     0597                     	;# 
   755     0598                     	;# 
   756     0598                     	;# 
   757     0599                     	;# 
   758     059A                     	;# 
   759     059A                     	;# 
   760     0617                     	;# 
   761     0617                     	;# 
   762     0618                     	;# 
   763     0619                     	;# 
   764     061A                     	;# 
   765     061A                     	;# 
   766     061B                     	;# 
   767     061C                     	;# 
   768     068D                     	;# 
   769     068E                     	;# 
   770     068F                     	;# 
   771     0690                     	;# 
   772     0691                     	;# 
   773     0692                     	;# 
   774     0693                     	;# 
   775     0694                     	;# 
   776     0695                     	;# 
   777     0696                     	;# 
   778     0697                     	;# 
   779     0698                     	;# 
   780     0699                     	;# 
   781     069A                     	;# 
   782     069B                     	;# 
   783     069C                     	;# 
   784     069D                     	;# 
   785     069E                     	;# 
   786     069F                     	;# 
   787     070D                     	;# 
   788     070E                     	;# 
   789     070F                     	;# 
   790     0710                     	;# 
   791     0711                     	;# 
   792     0712                     	;# 
   793     0713                     	;# 
   794     0714                     	;# 
   795     0715                     	;# 
   796     0716                     	;# 
   797     0717                     	;# 
   798     0718                     	;# 
   799     0719                     	;# 
   800     071A                     	;# 
   801     071B                     	;# 
   802     071C                     	;# 
   803     071D                     	;# 
   804     071E                     	;# 
   805     071F                     	;# 
   806     0794                     	;# 
   807     0795                     	;# 
   808     0796                     	;# 
   809     0797                     	;# 
   810     0798                     	;# 
   811     0799                     	;# 
   812     079A                     	;# 
   813     079B                     	;# 
   814     079C                     	;# 
   815     079D                     	;# 
   816     079E                     	;# 
   817     079F                     	;# 
   818     0D8E                     	;# 
   819     0D8F                     	;# 
   820     0D90                     	;# 
   821     0D91                     	;# 
   822     0D91                     	;# 
   823     0D92                     	;# 
   824     0D93                     	;# 
   825     0D93                     	;# 
   826     0D94                     	;# 
   827     0D95                     	;# 
   828     0D95                     	;# 
   829     0D96                     	;# 
   830     0D97                     	;# 
   831     0D97                     	;# 
   832     0D98                     	;# 
   833     0D99                     	;# 
   834     0D99                     	;# 
   835     0D9A                     	;# 
   836     0D9B                     	;# 
   837     0D9C                     	;# 
   838     0D9C                     	;# 
   839     0D9D                     	;# 
   840     0D9D                     	;# 
   841     0D9E                     	;# 
   842     0D9F                     	;# 
   843     0DA0                     	;# 
   844     0DA1                     	;# 
   845     0DA1                     	;# 
   846     0DA2                     	;# 
   847     0DA3                     	;# 
   848     0DA3                     	;# 
   849     0DA4                     	;# 
   850     0DA5                     	;# 
   851     0DA5                     	;# 
   852     0DA6                     	;# 
   853     0DA7                     	;# 
   854     0DA7                     	;# 
   855     0DA8                     	;# 
   856     0DA9                     	;# 
   857     0DA9                     	;# 
   858     0DAA                     	;# 
   859     0DAB                     	;# 
   860     0DAC                     	;# 
   861     0DAC                     	;# 
   862     0DAD                     	;# 
   863     0DAD                     	;# 
   864     0DAE                     	;# 
   865     0DAF                     	;# 
   866     0DB0                     	;# 
   867     0E0F                     	;# 
   868     0E10                     	;# 
   869     0E11                     	;# 
   870     0E12                     	;# 
   871     0E13                     	;# 
   872     0E14                     	;# 
   873     0E15                     	;# 
   874     0E16                     	;# 
   875     0E17                     	;# 
   876     0E19                     	;# 
   877     0E19                     	;# 
   878     0E19                     	;# 
   879     0E1A                     	;# 
   880     0E1B                     	;# 
   881     0E1C                     	;# 
   882     0E1C                     	;# 
   883     0E1C                     	;# 
   884     0E1D                     	;# 
   885     0E1E                     	;# 
   886     0E1F                     	;# 
   887     0E1F                     	;# 
   888     0E1F                     	;# 
   889     0E20                     	;# 
   890     0E21                     	;# 
   891     0E22                     	;# 
   892     0E24                     	;# 
   893     0E25                     	;# 
   894     0E28                     	;# 
   895     0E29                     	;# 
   896     0E2A                     	;# 
   897     0E2B                     	;# 
   898     0E2C                     	;# 
   899     0E2D                     	;# 
   900     0E2E                     	;# 
   901     0E2F                     	;# 
   902     0E30                     	;# 
   903     0E31                     	;# 
   904     0E32                     	;# 
   905     0E33                     	;# 
   906     0E34                     	;# 
   907     0E35                     	;# 
   908     0E90                     	;# 
   909     0E91                     	;# 
   910     0E92                     	;# 
   911     0E94                     	;# 
   912     0E95                     	;# 
   913     0E9C                     	;# 
   914     0E9D                     	;# 
   915     0E9E                     	;# 
   916     0E9F                     	;# 
   917     0EA0                     	;# 
   918     0EA1                     	;# 
   919     0EA2                     	;# 
   920     0EA3                     	;# 
   921     0EA4                     	;# 
   922     0EA5                     	;# 
   923     0EA6                     	;# 
   924     0EA7                     	;# 
   925     0F0F                     	;# 
   926     0F10                     	;# 
   927     0F11                     	;# 
   928     0F12                     	;# 
   929     0F13                     	;# 
   930     0F14                     	;# 
   931     0F15                     	;# 
   932     0F16                     	;# 
   933     0F17                     	;# 
   934     0F18                     	;# 
   935     0F19                     	;# 
   936     0F1A                     	;# 
   937     0F1B                     	;# 
   938     0F1C                     	;# 
   939     0F1D                     	;# 
   940     0F1E                     	;# 
   941     0F1F                     	;# 
   942     0F20                     	;# 
   943     0F21                     	;# 
   944     0F22                     	;# 
   945     0F23                     	;# 
   946     0F24                     	;# 
   947     0F25                     	;# 
   948     0F26                     	;# 
   949     0F27                     	;# 
   950     0F28                     	;# 
   951     0F29                     	;# 
   952     0F2A                     	;# 
   953     0F2B                     	;# 
   954     0F2C                     	;# 
   955     0F2D                     	;# 
   956     0FE4                     	;# 
   957     0FE5                     	;# 
   958     0FE6                     	;# 
   959     0FE7                     	;# 
   960     0FE8                     	;# 
   961     0FE9                     	;# 
   962     0FEA                     	;# 
   963     0FEB                     	;# 
   964     0FED                     	;# 
   965     0FEE                     	;# 
   966     0FEF                     	;_sine_table
   967                           
   968                           	psect	idataBANK2
   969     0002                     __pidataBANK2:
   970                           
   971                           ;initializer for _freq
   972     0002  34E8               	retlw	232
   973     0003  3403               	retlw	3
   974                           
   975                           	psect	stringtext1
   976     1811                     __pstringtext1:
   977     1811                     _S4:
   978     1811  343C               	retlw	60
   979     1812  346C               	retlw	108
   980     1813  3436               	retlw	54
   981     1814  3436               	retlw	54
   982     1815                     __end_of_S4:
   983                           
   984                           	psect	stringtext2
   985     1815                     __pstringtext2:
   986     1815                     _S3:
   987     1815  34CF               	retlw	207
   988     1816  3407               	retlw	7
   989     1817  3450               	retlw	80
   990     1818  34B9               	retlw	185
   991     1819                     __end_of_S3:
   992                           
   993                           	psect	stringtext3
   994     1819                     __pstringtext3:
   995     1819                     _S2:
   996     1819  3484               	retlw	132
   997     181A  3488               	retlw	136
   998     181B  3408               	retlw	8
   999     181C  343C               	retlw	60
  1000     181D                     __end_of_S2:
  1001                           
  1002                           	psect	stringtext4
  1003     181D                     __pstringtext4:
  1004     181D                     _S1:
  1005     181D  34AB               	retlw	171
  1006     181E  34AA               	retlw	170
  1007     181F  342A               	retlw	42
  1008     1820  34BE               	retlw	190
  1009     1821                     __end_of_S1:
  1010                           
  1011                           	psect	stringtext5
  1012     1821                     __pstringtext5:
  1013     1821                     _pio2_1t:
  1014     1821  34A3               	retlw	163
  1015     1822  3485               	retlw	133
  1016     1823  3488               	retlw	136
  1017     1824  3432               	retlw	50
  1018     1825                     __end_of_pio2_1t:
  1019                           
  1020                           	psect	stringtext6
  1021     1825                     __pstringtext6:
  1022     1825                     _pio2_1:
  1023     1825  34DA               	retlw	218
  1024     1826  340F               	retlw	15
  1025     1827  34C9               	retlw	201
  1026     1828  343F               	retlw	63
  1027     1829                     __end_of_pio2_1:
  1028                           
  1029                           	psect	stringtext7
  1030     1829                     __pstringtext7:
  1031     1829                     _invpio2:
  1032     1829  3483               	retlw	131
  1033     182A  34F9               	retlw	249
  1034     182B  3422               	retlw	34
  1035     182C  343F               	retlw	63
  1036     182D                     __end_of_invpio2:
  1037                           
  1038                           	psect	stringtext8
  1039     182D                     __pstringtext8:
  1040     182D                     _half:
  1041     182D  3400               	retlw	0
  1042     182E  3400               	retlw	0
  1043     182F  3400               	retlw	0
  1044     1830  343F               	retlw	63
  1045     1831                     __end_of_half:
  1046                           
  1047                           	psect	stringtext9
  1048     1831                     __pstringtext9:
  1049     1831                     _toint:
  1050     1831  3400               	retlw	0
  1051     1832  3400               	retlw	0
  1052     1833  3440               	retlw	64
  1053     1834  344B               	retlw	75
  1054     1835                     __end_of_toint:
  1055                           
  1056                           	psect	stringtext10
  1057     1835                     __pstringtext10:
  1058     1835                     _C3:
  1059     1835  3417               	retlw	23
  1060     1836  349A               	retlw	154
  1061     1837  34CC               	retlw	204
  1062     1838  3437               	retlw	55
  1063     1839                     __end_of_C3:
  1064                           
  1065                           	psect	stringtext11
  1066     1839                     __pstringtext11:
  1067     1839                     _C2:
  1068     1839  343F               	retlw	63
  1069     183A  3404               	retlw	4
  1070     183B  34B6               	retlw	182
  1071     183C  34BA               	retlw	186
  1072     183D                     __end_of_C2:
  1073                           
  1074                           	psect	stringtext12
  1075     183D                     __pstringtext12:
  1076     183D                     _C1:
  1077     183D  349F               	retlw	159
  1078     183E  34AA               	retlw	170
  1079     183F  342A               	retlw	42
  1080     1840  343D               	retlw	61
  1081     1841                     __end_of_C1:
  1082                           
  1083                           	psect	stringtext13
  1084     1841                     __pstringtext13:
  1085     1841                     _C0:
  1086     1841  3400               	retlw	0
  1087     1842  3400               	retlw	0
  1088     1843  3400               	retlw	0
  1089     1844  34BF               	retlw	191
  1090     1845                     __end_of_C0:
  1091                           
  1092                           	psect	stringtext14
  1093     1845                     __pstringtext14:
  1094     1845                     _s4pio2:
  1095     1845  34DB               	retlw	219
  1096     1846  340F               	retlw	15
  1097     1847  34C9               	retlw	201
  1098     1848  3440               	retlw	64
  1099     1849                     __end_of_s4pio2:
  1100                           
  1101                           	psect	stringtext15
  1102     1849                     __pstringtext15:
  1103     1849                     _s3pio2:
  1104     1849  34E4               	retlw	228
  1105     184A  34CB               	retlw	203
  1106     184B  3496               	retlw	150
  1107     184C  3440               	retlw	64
  1108     184D                     __end_of_s3pio2:
  1109                           
  1110                           	psect	stringtext16
  1111     184D                     __pstringtext16:
  1112     184D                     _s2pio2:
  1113     184D  34DB               	retlw	219
  1114     184E  340F               	retlw	15
  1115     184F  3449               	retlw	73
  1116     1850  3440               	retlw	64
  1117     1851                     __end_of_s2pio2:
  1118                           
  1119                           	psect	stringtext17
  1120     1800                     __pstringtext17:
  1121     1800                     _s1pio2:
  1122     1800  34DB               	retlw	219
  1123     1801  340F               	retlw	15
  1124     1802  34C9               	retlw	201
  1125     1803  343F               	retlw	63
  1126     1804                     __end_of_s1pio2:
  1127     001C                     _T2CON	set	28
  1128     001B                     _PR2	set	27
  1129     001E                     _T2CLKCON	set	30
  1130     000E                     _PORTC	set	14
  1131     000D                     _PORTB	set	13
  1132     000C                     _PORTA	set	12
  1133     0075                     _RC5	set	117
  1134     0077                     _RC7	set	119
  1135     0089                     _TMR2IF	set	137
  1136     005F                     _GIE	set	95
  1137     005E                     _PEIE	set	94
  1138     0062                     _RA2	set	98
  1139     008E                     _TRISC	set	142
  1140     008D                     _TRISB	set	141
  1141     008C                     _TRISA	set	140
  1142     0489                     _TMR2IE	set	1161
  1143     018E                     _ANSELC	set	398
  1144     018C                     _ANSELA	set	396
  1145     021E                     _FVRCON	set	542
  1146     0590                     _DACLD	set	1424
  1147     0593                     _DAC1REFH	set	1427
  1148     0591                     _DAC1CON0	set	1425
  1149     1804                     STR_1:
  1150     1804  3448               	retlw	72	;'H'
  1151     1805  3465               	retlw	101	;'e'
  1152     1806  346C               	retlw	108	;'l'
  1153     1807  346C               	retlw	108	;'l'
  1154     1808  346F               	retlw	111	;'o'
  1155     1809  342C               	retlw	44	;','
  1156     180A  3477               	retlw	119	;'w'
  1157     180B  346F               	retlw	111	;'o'
  1158     180C  3472               	retlw	114	;'r'
  1159     180D  346C               	retlw	108	;'l'
  1160     180E  3464               	retlw	100	;'d'
  1161     180F  3421               	retlw	33	;'!'
  1162     1810  3400               	retlw	0
  1163                           
  1164                           	psect	stringtext18
  1165     0000                     __pstringtext18:
  1166                           
  1167                           	psect	cinit
  1168     000F                     start_initialization:	
  1169                           ; #config settings
  1170                           
  1171     000F                     __initialization:	;BIGRAM
  1172                           
  1173                           ; Initialize objects allocated to BANK2
  1174     000F  0022               	movlb	2	; select bank2
  1175     0010  3180  2002  3180   	fcall	__pidataBANK2	;fetch initializer
  1176     0013  00CF               	movwf	__pdataBANK2& (0+127)
  1177     0014  3180  2003  3180   	fcall	__pidataBANK2+1	;fetch initializer
  1178     0017  00D0               	movwf	(__pdataBANK2+1)& (0+127)
  1179                           
  1180                           ; Clear objects allocated to BIGRAM
  1181     0018  3028               	movlw	low (0+9000)
  1182     0019  0084               	movwf	4
  1183     001A  3023               	movlw	high (0+9000)
  1184     001B  0085               	movwf	5
  1185     001C  30C8               	movlw	200
  1186     001D  00FE               	movwf	btemp
  1187     001E  3000               	movlw	0
  1188     001F  00FF               	movwf	btemp+1
  1189     0020  3192  2272  3180   	fcall	clear_ram0
  1190                           
  1191                           ; Clear objects allocated to COMMON
  1192     0023  01F6               	clrf	__pbssCOMMON& (0+127)
  1193     0024  01F7               	clrf	(__pbssCOMMON+1)& (0+127)
  1194     0025  01F8               	clrf	(__pbssCOMMON+2)& (0+127)
  1195                           
  1196                           ; Clear objects allocated to BANK1
  1197     0026  0021               	movlb	1	; select bank1
  1198     0027  01E9               	clrf	__pbssBANK1& (0+127)
  1199                           
  1200                           ; Clear objects allocated to BANK2
  1201     0028  0022               	movlb	2	; select bank2
  1202     0029  01C7               	clrf	__pbssBANK2& (0+127)
  1203     002A  01C8               	clrf	(__pbssBANK2+1)& (0+127)
  1204     002B  01C9               	clrf	(__pbssBANK2+2)& (0+127)
  1205     002C  01CA               	clrf	(__pbssBANK2+3)& (0+127)
  1206     002D  01CB               	clrf	(__pbssBANK2+4)& (0+127)
  1207     002E  01CC               	clrf	(__pbssBANK2+5)& (0+127)
  1208     002F  01CD               	clrf	(__pbssBANK2+6)& (0+127)
  1209     0030  01CE               	clrf	(__pbssBANK2+7)& (0+127)
  1210     0031                     end_of_initialization:	
  1211                           ;End of C runtime variable initialization code
  1212                           
  1213     0031                     __end_of__initialization:
  1214     0031  107E               	bcf	int$flags,0	;clear compiler interrupt flag (level 1)
  1215     0032  0020               	movlb	0
  1216     0033  3193  2BFE         	ljmp	_main	;jump to C main() function
  1217                           
  1218                           	psect	bssCOMMON
  1219     0076                     __pbssCOMMON:
  1220     0076                     wave_out@stage:
  1221     0076                     	ds	1
  1222     0077                     wave_out@i:
  1223     0077                     	ds	1
  1224     0078                     _wavetype:
  1225     0078                     	ds	1
  1226                           
  1227                           	psect	bssBANK1
  1228     00E9                     __pbssBANK1:
  1229     00E9                     _step:
  1230     00E9                     	ds	1
  1231                           
  1232                           	psect	bssBANK2
  1233     0147                     __pbssBANK2:
  1234     0147                     fabsf@F465:
  1235     0147                     	ds	4
  1236     014B                     ___rem_pio2f@F532:
  1237     014B                     	ds	4
  1238                           
  1239                           	psect	dataBANK2
  1240     014F                     __pdataBANK2:
  1241     014F                     _freq:
  1242     014F                     	ds	2
  1243                           
  1244                           	psect	clrtext
  1245     1272                     clear_ram0:	
  1246                           ;	Called with FSR0 containing the base address, and
  1247                           ;	btemp/btemp+1 has the size to clear
  1248                           
  1249     1272  0064               	clrwdt	;clear the watchdog before getting into this loop
  1250     1273                     clrloop0:
  1251     1273  0180               	clrf	0	;clear RAM location pointed to by FSR
  1252     1274  3101               	addfsr 0,1
  1253     1275  3001               	movlw	1
  1254     1276  02FE               	subwf	btemp,f
  1255     1277  3000               	movlw	0
  1256     1278  3BFF               	subwfb	btemp+1,f
  1257     1279  087F               	movf	btemp+1,w
  1258     127A  047E               	iorwf	btemp,w
  1259     127B  1D03               	skipz
  1260     127C  2A73               	goto	clrloop0	;have we reached the end yet?
  1261     127D  3400               	retlw	0	;all done for this memory range, return
  1262                           
  1263                           	psect	cstackBANK2
  1264     0120                     __pcstackBANK2:
  1265     0120                     sinf@n:
  1266                           
  1267                           ; 4 bytes @ 0x0
  1268     0120                     	ds	4
  1269     0124                     sinf@__xc8_float_word:
  1270                           
  1271                           ; 4 bytes @ 0x4
  1272     0124                     	ds	4
  1273     0128                     _sinf$485:
  1274                           
  1275                           ; 4 bytes @ 0x8
  1276     0128                     	ds	4
  1277     012C                     _sinf$486:
  1278                           
  1279                           ; 4 bytes @ 0xC
  1280     012C                     	ds	4
  1281     0130                     sinf@sign:
  1282                           
  1283                           ; 2 bytes @ 0x10
  1284     0130                     	ds	2
  1285     0132                     _sinf$688:
  1286                           
  1287                           ; 4 bytes @ 0x12
  1288     0132                     	ds	4
  1289     0136                     sinf@y:
  1290                           
  1291                           ; 4 bytes @ 0x16
  1292     0136                     	ds	4
  1293     013A                     sinf@ix:
  1294                           
  1295                           ; 4 bytes @ 0x1A
  1296     013A                     	ds	4
  1297     013E                     _sine_table_gen$686:
  1298                           
  1299                           ; 4 bytes @ 0x1E
  1300     013E                     	ds	4
  1301     0142                     _sine_table_gen$687:
  1302                           
  1303                           ; 4 bytes @ 0x22
  1304     0142                     	ds	4
  1305     0146                     sine_table_gen@i:
  1306                           
  1307                           ; 1 bytes @ 0x26
  1308     0146                     	ds	1
  1309                           
  1310                           	psect	cstackBANK1
  1311     00A0                     __pcstackBANK1:
  1312     00A0                     ___cosdf@r:
  1313                           
  1314                           ; 4 bytes @ 0x0
  1315     00A0                     	ds	4
  1316     00A4                     ___cosdf$689:
  1317                           
  1318                           ; 4 bytes @ 0x4
  1319     00A4                     	ds	4
  1320     00A8                     ___cosdf$690:
  1321                           
  1322                           ; 4 bytes @ 0x8
  1323     00A8                     	ds	4
  1324     00AC                     ___cosdf$691:
  1325                           
  1326                           ; 4 bytes @ 0xC
  1327     00AC                     	ds	4
  1328     00B0                     ___cosdf@w:
  1329                           
  1330                           ; 4 bytes @ 0x10
  1331     00B0                     	ds	4
  1332     00B4                     ___cosdf@z:
  1333                           
  1334                           ; 4 bytes @ 0x14
  1335     00B4                     	ds	4
  1336     00B8                     ?___rem_pio2f:
  1337     00B8                     ___rem_pio2f@x:	
  1338                           ; 2 bytes @ 0x18
  1339                           
  1340     00B8                     ___sindf@r:	
  1341                           ; 4 bytes @ 0x18
  1342                           
  1343                           
  1344                           ; 4 bytes @ 0x18
  1345     00B8                     	ds	4
  1346     00BC                     ___rem_pio2f@y:
  1347     00BC                     ___sindf@w:	
  1348                           ; 1 bytes @ 0x1C
  1349                           
  1350                           
  1351                           ; 4 bytes @ 0x1C
  1352     00BC                     	ds	1
  1353     00BD                     ___rem_pio2f@ty:
  1354                           
  1355                           ; 4 bytes @ 0x1D
  1356     00BD                     	ds	3
  1357     00C0                     ___sindf$693:
  1358                           
  1359                           ; 4 bytes @ 0x20
  1360     00C0                     	ds	1
  1361     00C1                     ___rem_pio2f@ix:
  1362                           
  1363                           ; 4 bytes @ 0x21
  1364     00C1                     	ds	3
  1365     00C4                     ___sindf$694:
  1366                           
  1367                           ; 4 bytes @ 0x24
  1368     00C4                     	ds	1
  1369     00C5                     ___rem_pio2f@sign:
  1370                           
  1371                           ; 2 bytes @ 0x25
  1372     00C5                     	ds	2
  1373     00C7                     ___rem_pio2f@u:
  1374                           
  1375                           ; 4 bytes @ 0x27
  1376     00C7                     	ds	1
  1377     00C8                     ___sindf$695:
  1378                           
  1379                           ; 4 bytes @ 0x28
  1380     00C8                     	ds	3
  1381     00CB                     ___rem_pio2f$692:
  1382                           
  1383                           ; 4 bytes @ 0x2B
  1384     00CB                     	ds	1
  1385     00CC                     ___sindf@s:
  1386                           
  1387                           ; 4 bytes @ 0x2C
  1388     00CC                     	ds	3
  1389     00CF                     ___rem_pio2f@fn:
  1390                           
  1391                           ; 4 bytes @ 0x2F
  1392     00CF                     	ds	1
  1393     00D0                     ___sindf@z:
  1394                           
  1395                           ; 4 bytes @ 0x30
  1396     00D0                     	ds	3
  1397     00D3                     ___rem_pio2f@t:
  1398                           
  1399                           ; 4 bytes @ 0x33
  1400     00D3                     	ds	4
  1401     00D7                     ___rem_pio2f@n:
  1402                           
  1403                           ; 4 bytes @ 0x37
  1404     00D7                     	ds	4
  1405     00DB                     ?_sinf:
  1406     00DB                     sinf@x:	
  1407                           ; 4 bytes @ 0x3B
  1408                           
  1409                           
  1410                           ; 4 bytes @ 0x3B
  1411     00DB                     	ds	4
  1412     00DF                     ??_sinf:
  1413                           
  1414                           ; 1 bytes @ 0x3F
  1415     00DF                     	ds	4
  1416     00E3                     ??_sine_table_gen:
  1417                           
  1418                           ; 1 bytes @ 0x43
  1419     00E3                     	ds	4
  1420     00E7                     ??_main:
  1421                           
  1422                           ; 1 bytes @ 0x47
  1423     00E7                     	ds	2
  1424                           
  1425                           	psect	cstackCOMMON
  1426     0070                     __pcstackCOMMON:
  1427     0070                     ?_lcd_init:
  1428     0070                     ?_Timer_init:	
  1429                           ; 1 bytes @ 0x0
  1430                           
  1431     0070                     ?_DAC_init:	
  1432                           ; 1 bytes @ 0x0
  1433                           
  1434     0070                     ?_sine_table_gen:	
  1435                           ; 1 bytes @ 0x0
  1436                           
  1437     0070                     ?_DAC_valueset:	
  1438                           ; 1 bytes @ 0x0
  1439                           
  1440     0070                     ??_DAC_valueset:	
  1441                           ; 1 bytes @ 0x0
  1442                           
  1443     0070                     ?_wave_out:	
  1444                           ; 1 bytes @ 0x0
  1445                           
  1446     0070                     ?_isr:	
  1447                           ; 1 bytes @ 0x0
  1448                           
  1449     0070                     ?_LCD_EN:	
  1450                           ; 1 bytes @ 0x0
  1451                           
  1452     0070                     ?_LCD_RS:	
  1453                           ; 1 bytes @ 0x0
  1454                           
  1455     0070                     ?_LCD_STROBE:	
  1456                           ; 1 bytes @ 0x0
  1457                           
  1458     0070                     ?_lcd_data_byteset:	
  1459                           ; 1 bytes @ 0x0
  1460                           
  1461     0070                     ?_lcd_data_set:	
  1462                           ; 1 bytes @ 0x0
  1463                           
  1464     0070                     ?_lcd_putch:	
  1465                           ; 1 bytes @ 0x0
  1466                           
  1467     0070                     ?_main:	
  1468                           ; 1 bytes @ 0x0
  1469                           
  1470     0070                     DAC_valueset@value:	
  1471                           ; 2 bytes @ 0x0
  1472                           
  1473     0070                     sine_table_gen@amp:	
  1474                           ; 1 bytes @ 0x0
  1475                           
  1476                           
  1477                           ; 1 bytes @ 0x0
  1478     0070                     	ds	1
  1479     0071                     ??_wave_out:
  1480                           
  1481                           ; 1 bytes @ 0x1
  1482     0071                     	ds	4
  1483     0075                     ??_Timer_init:
  1484     0075                     ??_DAC_init:	
  1485                           ; 1 bytes @ 0x5
  1486                           
  1487     0075                     ??___sindf:	
  1488                           ; 1 bytes @ 0x5
  1489                           
  1490     0075                     ??___cosdf:	
  1491                           ; 1 bytes @ 0x5
  1492                           
  1493     0075                     ??_fabsf:	
  1494                           ; 1 bytes @ 0x5
  1495                           
  1496     0075                     ??_isr:	
  1497                           ; 1 bytes @ 0x5
  1498                           
  1499     0075                     ??_LCD_EN:	
  1500                           ; 1 bytes @ 0x5
  1501                           
  1502     0075                     ??_LCD_RS:	
  1503                           ; 1 bytes @ 0x5
  1504                           
  1505     0075                     ??___flneg:	
  1506                           ; 1 bytes @ 0x5
  1507                           
  1508     0075                     ??___lwdiv:	
  1509                           ; 1 bytes @ 0x5
  1510                           
  1511     0075                     ??___flsub:	
  1512                           ; 1 bytes @ 0x5
  1513                           
  1514     0075                     LCD_EN@enable:	
  1515                           ; 1 bytes @ 0x5
  1516                           
  1517     0075                     LCD_RS@enable:	
  1518                           ; 1 bytes @ 0x5
  1519                           
  1520                           
  1521                           ; 1 bytes @ 0x5
  1522     0075                     	ds	1
  1523     0076                     ??_lcd_putch:
  1524                           
  1525                           	psect	cstackBANK0
  1526     0020                     __pcstackBANK0:	
  1527                           ; 1 bytes @ 0x6
  1528                           
  1529     0020                     ??_LCD_STROBE:
  1530     0020                     ?__Umul8_16:	
  1531                           ; 1 bytes @ 0x0
  1532                           
  1533     0020                     ?___lwdiv:	
  1534                           ; 2 bytes @ 0x0
  1535                           
  1536     0020                     ?_fabsf:	
  1537                           ; 2 bytes @ 0x0
  1538                           
  1539     0020                     ?___xxtofl:	
  1540                           ; 4 bytes @ 0x0
  1541                           
  1542     0020                     __Umul8_16@multiplicand:	
  1543                           ; 4 bytes @ 0x0
  1544                           
  1545     0020                     ___lwdiv@divisor:	
  1546                           ; 1 bytes @ 0x0
  1547                           
  1548     0020                     ___xxtofl@val:	
  1549                           ; 2 bytes @ 0x0
  1550                           
  1551     0020                     fabsf@x:	
  1552                           ; 4 bytes @ 0x0
  1553                           
  1554                           
  1555                           ; 4 bytes @ 0x0
  1556     0020                     	ds	1
  1557     0021                     ??_lcd_data_byteset:
  1558     0021                     ??_lcd_data_set:	
  1559                           ; 1 bytes @ 0x1
  1560                           
  1561                           
  1562                           ; 1 bytes @ 0x1
  1563     0021                     	ds	1
  1564     0022                     ??__Umul8_16:
  1565     0022                     ___lwdiv@dividend:	
  1566                           ; 1 bytes @ 0x2
  1567                           
  1568                           
  1569                           ; 2 bytes @ 0x2
  1570     0022                     	ds	1
  1571     0023                     lcd_data_byteset@c:
  1572     0023                     lcd_data_set@c:	
  1573                           ; 1 bytes @ 0x3
  1574                           
  1575                           
  1576                           ; 1 bytes @ 0x3
  1577     0023                     	ds	1
  1578     0024                     ??_lcd_init:
  1579     0024                     ??___xxtofl:	
  1580                           ; 1 bytes @ 0x4
  1581                           
  1582     0024                     lcd_putch@c:	
  1583                           ; 1 bytes @ 0x4
  1584                           
  1585     0024                     ___lwdiv@counter:	
  1586                           ; 1 bytes @ 0x4
  1587                           
  1588     0024                     __Umul8_16@product:	
  1589                           ; 1 bytes @ 0x4
  1590                           
  1591     0024                     fabsf@u:	
  1592                           ; 2 bytes @ 0x4
  1593                           
  1594                           
  1595                           ; 4 bytes @ 0x4
  1596     0024                     	ds	1
  1597     0025                     ?_lcd_puts:
  1598     0025                     lcd_puts@s:	
  1599                           ; 1 bytes @ 0x5
  1600                           
  1601     0025                     ___lwdiv@quotient:	
  1602                           ; 2 bytes @ 0x5
  1603                           
  1604                           
  1605                           ; 2 bytes @ 0x5
  1606     0025                     	ds	1
  1607     0026                     __Umul8_16@word_mpld:
  1608                           
  1609                           ; 2 bytes @ 0x6
  1610     0026                     	ds	1
  1611     0027                     ??_lcd_puts:
  1612                           
  1613                           ; 1 bytes @ 0x7
  1614     0027                     	ds	1
  1615     0028                     __Umul8_16@multiplier:
  1616     0028                     ___xxtofl@sign:	
  1617                           ; 1 bytes @ 0x8
  1618                           
  1619                           
  1620                           ; 1 bytes @ 0x8
  1621     0028                     	ds	1
  1622     0029                     ___xxtofl@exp:
  1623                           
  1624                           ; 1 bytes @ 0x9
  1625     0029                     	ds	1
  1626     002A                     ___xxtofl@arg:
  1627                           
  1628                           ; 4 bytes @ 0xA
  1629     002A                     	ds	4
  1630     002E                     ?___flmul:
  1631     002E                     ___flmul@b:	
  1632                           ; 4 bytes @ 0xE
  1633                           
  1634                           
  1635                           ; 4 bytes @ 0xE
  1636     002E                     	ds	4
  1637     0032                     ___flmul@a:
  1638                           
  1639                           ; 4 bytes @ 0x12
  1640     0032                     	ds	4
  1641     0036                     ??___flmul:
  1642                           
  1643                           ; 1 bytes @ 0x16
  1644     0036                     	ds	5
  1645     003B                     ___flmul@sign:
  1646                           
  1647                           ; 1 bytes @ 0x1B
  1648     003B                     	ds	1
  1649     003C                     ___flmul@aexp:
  1650                           
  1651                           ; 1 bytes @ 0x1C
  1652     003C                     	ds	1
  1653     003D                     ___flmul@grs:
  1654                           
  1655                           ; 4 bytes @ 0x1D
  1656     003D                     	ds	4
  1657     0041                     ___flmul@bexp:
  1658                           
  1659                           ; 1 bytes @ 0x21
  1660     0041                     	ds	1
  1661     0042                     ___flmul@prod:
  1662                           
  1663                           ; 4 bytes @ 0x22
  1664     0042                     	ds	4
  1665     0046                     ___flmul@temp:
  1666                           
  1667                           ; 2 bytes @ 0x26
  1668     0046                     	ds	2
  1669     0048                     ?___fladd:
  1670     0048                     ?___fldiv:	
  1671                           ; 4 bytes @ 0x28
  1672                           
  1673     0048                     ___fladd@b:	
  1674                           ; 4 bytes @ 0x28
  1675                           
  1676     0048                     ___fldiv@a:	
  1677                           ; 4 bytes @ 0x28
  1678                           
  1679                           
  1680                           ; 4 bytes @ 0x28
  1681     0048                     	ds	4
  1682     004C                     ___fladd@a:
  1683     004C                     ___fldiv@b:	
  1684                           ; 4 bytes @ 0x2C
  1685                           
  1686                           
  1687                           ; 4 bytes @ 0x2C
  1688     004C                     	ds	4
  1689     0050                     ??___fladd:
  1690     0050                     ??___fldiv:	
  1691                           ; 1 bytes @ 0x30
  1692                           
  1693                           
  1694                           ; 1 bytes @ 0x30
  1695     0050                     	ds	5
  1696     0055                     ___fldiv@rem:
  1697                           
  1698                           ; 4 bytes @ 0x35
  1699     0055                     	ds	3
  1700     0058                     ___fladd@signs:
  1701                           
  1702                           ; 1 bytes @ 0x38
  1703     0058                     	ds	1
  1704     0059                     ___fladd@aexp:
  1705     0059                     ___fldiv@sign:	
  1706                           ; 1 bytes @ 0x39
  1707                           
  1708                           
  1709                           ; 1 bytes @ 0x39
  1710     0059                     	ds	1
  1711     005A                     ___fladd@bexp:
  1712     005A                     ___fldiv@new_exp:	
  1713                           ; 1 bytes @ 0x3A
  1714                           
  1715                           
  1716                           ; 2 bytes @ 0x3A
  1717     005A                     	ds	1
  1718     005B                     ___fladd@grs:
  1719                           
  1720                           ; 1 bytes @ 0x3B
  1721     005B                     	ds	1
  1722     005C                     ?___cosdf:
  1723     005C                     ?___flsub:	
  1724                           ; 4 bytes @ 0x3C
  1725                           
  1726     005C                     ___flsub@a:	
  1727                           ; 4 bytes @ 0x3C
  1728                           
  1729     005C                     ___fldiv@grs:	
  1730                           ; 4 bytes @ 0x3C
  1731                           
  1732     005C                     ___cosdf@x:	
  1733                           ; 4 bytes @ 0x3C
  1734                           
  1735                           
  1736                           ; 4 bytes @ 0x3C
  1737     005C                     	ds	4
  1738     0060                     ?___flneg:
  1739     0060                     ___fldiv@bexp:	
  1740                           ; 4 bytes @ 0x40
  1741                           
  1742     0060                     ___flneg@f1:	
  1743                           ; 1 bytes @ 0x40
  1744                           
  1745     0060                     ___flsub@b:	
  1746                           ; 4 bytes @ 0x40
  1747                           
  1748                           
  1749                           ; 4 bytes @ 0x40
  1750     0060                     	ds	1
  1751     0061                     ___fldiv@aexp:
  1752                           
  1753                           ; 1 bytes @ 0x41
  1754     0061                     	ds	1
  1755     0062                     ?___fltol:
  1756     0062                     ___fltol@f1:	
  1757                           ; 4 bytes @ 0x42
  1758                           
  1759                           
  1760                           ; 4 bytes @ 0x42
  1761     0062                     	ds	2
  1762     0064                     ?___sindf:
  1763     0064                     ___sindf@x:	
  1764                           ; 4 bytes @ 0x44
  1765                           
  1766                           
  1767                           ; 4 bytes @ 0x44
  1768     0064                     	ds	2
  1769     0066                     ??___fltol:
  1770                           
  1771                           ; 1 bytes @ 0x46
  1772     0066                     	ds	4
  1773     006A                     ___fltol@sign1:
  1774                           
  1775                           ; 1 bytes @ 0x4A
  1776     006A                     	ds	1
  1777     006B                     ___fltol@exp1:
  1778                           
  1779                           ; 1 bytes @ 0x4B
  1780     006B                     	ds	1
  1781     006C                     ??___rem_pio2f:
  1782                           
  1783                           ; 1 bytes @ 0x4C
  1784     006C                     	ds	4
  1785                           
  1786                           	psect	maintext
  1787     13FE                     __pmaintext:	
  1788 ;;
  1789 ;;Main: autosize = 0, tempsize = 2, incstack = 0, save=0
  1790 ;;
  1791 ;; *************** function _main *****************
  1792 ;; Defined at:
  1793 ;;		line 63 in file "main.c"
  1794 ;; Parameters:    Size  Location     Type
  1795 ;;		None
  1796 ;; Auto vars:     Size  Location     Type
  1797 ;;  out             1    0        unsigned char 
  1798 ;; Return value:  Size  Location     Type
  1799 ;;                  2   66[None  ] int 
  1800 ;; Registers used:
  1801 ;;		wreg, fsr0l, fsr0h, fsr1l, fsr1h, status,2, status,0, pclath, cstack
  1802 ;; Tracked objects:
  1803 ;;		On entry : B1F/0
  1804 ;;		On exit  : 0/0
  1805 ;;		Unchanged: 0/0
  1806 ;; Data sizes:     COMMON   BANK0   BANK1   BANK2   BANK3   BANK4   BANK5   BANK6   BANK7   BANK8   BANK9  BANK10  BANK1
      +1  BANK12
  1807 ;;      Params:         0       0       0       0       0       0       0       0       0       0       0       0       
      +0       0
  1808 ;;      Locals:         0       0       0       0       0       0       0       0       0       0       0       0       
      +0       0
  1809 ;;      Temps:          0       0       2       0       0       0       0       0       0       0       0       0       
      +0       0
  1810 ;;      Totals:         0       0       2       0       0       0       0       0       0       0       0       0       
      +0       0
  1811 ;;Total ram usage:        2 bytes
  1812 ;; Hardware stack levels required when called: 8
  1813 ;; This function calls:
  1814 ;;		_DAC_init
  1815 ;;		_Timer_init
  1816 ;;		___lwdiv
  1817 ;;		_lcd_init
  1818 ;;		_lcd_puts
  1819 ;;		_sine_table_gen
  1820 ;; This function is called by:
  1821 ;;		Startup code after reset
  1822 ;; This function uses a non-reentrant model
  1823 ;;
  1824                           
  1825     13FE                     _main:	
  1826                           ;psect for function _main
  1827                           
  1828     13FE                     l3656:	
  1829                           ;incstack = 0
  1830                           ; Regs used in _main: [wreg-fsr1h+status,2+status,0+pclath+cstack]
  1831                           
  1832                           
  1833                           ;main.c: 64:     ANSELA = 0x00;
  1834     13FE  0023               	movlb	3	; select bank3
  1835     13FF  018C               	clrf	12	;volatile
  1836                           
  1837                           ;main.c: 65:     ANSELC = 0x00;
  1838     1400  018E               	clrf	14	;volatile
  1839                           
  1840                           ;main.c: 66:     TRISA = 0b00000000;
  1841     1401  0021               	movlb	1	; select bank1
  1842     1402  018C               	clrf	12	;volatile
  1843                           
  1844                           ;main.c: 67:     TRISB = 0b00000000;
  1845     1403  018D               	clrf	13	;volatile
  1846     1404                     l3658:
  1847                           
  1848                           ;main.c: 68:     TRISC = 0b00011111;
  1849     1404  301F               	movlw	31
  1850     1405  008E               	movwf	14	;volatile
  1851     1406                     l3660:
  1852                           
  1853                           ;main.c: 69:     PORTA = 0x00;
  1854     1406  0020               	movlb	0	; select bank0
  1855     1407  018C               	clrf	12	;volatile
  1856     1408                     l3662:
  1857                           
  1858                           ;main.c: 70:     PORTB = 0x00;
  1859     1408  018D               	clrf	13	;volatile
  1860     1409                     l3664:
  1861                           
  1862                           ;main.c: 71:     PORTC = 0x00;
  1863     1409  018E               	clrf	14	;volatile
  1864     140A                     l3666:
  1865                           
  1866                           ;main.c: 73:     lcd_init();
  1867     140A  3194  247D  3193   	fcall	_lcd_init
  1868     140D                     l3668:
  1869                           
  1870                           ;main.c: 74:     Timer_init();
  1871     140D  3192  227E  3193   	fcall	_Timer_init
  1872     1410                     l3670:
  1873                           
  1874                           ;main.c: 75:     DAC_init();
  1875     1410  3192  2249  3193   	fcall	_DAC_init
  1876     1413                     l3672:
  1877                           
  1878                           ;main.c: 76:     sine_table_gen(127);
  1879     1413  307F               	movlw	127
  1880     1414  3195  25AE  3193   	fcall	_sine_table_gen
  1881     1417                     l3674:
  1882                           
  1883                           ;main.c: 78:     lcd_puts("Hello,world!");
  1884     1417  3004               	movlw	low (STR_1| (0+32768))
  1885     1418  0020               	movlb	0	; select bank0
  1886     1419  00A5               	movwf	lcd_puts@s
  1887     141A  3098               	movlw	high (STR_1| (0+32768))
  1888     141B  00A6               	movwf	lcd_puts@s+1
  1889     141C  3192  229E  3193   	fcall	_lcd_puts
  1890     141F                     l3676:
  1891     141F                     l3678:
  1892                           
  1893                           ;main.c: 82:     freq = 700;
  1894     141F  30BC               	movlw	188
  1895     1420  0022               	movlb	2	; select bank2
  1896     1421  00CF               	movwf	_freq^(0+256)
  1897     1422  3002               	movlw	2
  1898     1423  00D0               	movwf	(_freq^(0+256)+1)
  1899     1424                     l3680:
  1900                           
  1901                           ;main.c: 83:     step = (uint8_t) (freq / 100);
  1902     1424  3064               	movlw	100
  1903     1425  0020               	movlb	0	; select bank0
  1904     1426  00A0               	movwf	___lwdiv@divisor
  1905     1427  3000               	movlw	0
  1906     1428  00A1               	movwf	___lwdiv@divisor+1
  1907     1429  30BC               	movlw	188
  1908     142A  00A2               	movwf	___lwdiv@dividend
  1909     142B  3002               	movlw	2
  1910     142C  00A3               	movwf	___lwdiv@dividend+1
  1911     142D  3188  2012  3193   	fcall	___lwdiv
  1912     1430  0020               	movlb	0	; select bank0
  1913     1431  0820               	movf	?___lwdiv,w
  1914     1432  0021               	movlb	1	; select bank1
  1915     1433  00E9               	movwf	_step^(0+128)
  1916     1434                     l3682:
  1917                           
  1918                           ;main.c: 89:         freq = 700; step = (uint8_t) (freq / 100); RA2 = 1;
  1919     1434  30BC               	movlw	188
  1920     1435  0022               	movlb	2	; select bank2
  1921     1436  00CF               	movwf	_freq^(0+256)
  1922     1437  3002               	movlw	2
  1923     1438  00D0               	movwf	(_freq^(0+256)+1)
  1924     1439                     l3684:
  1925     1439  3064               	movlw	100
  1926     143A  0020               	movlb	0	; select bank0
  1927     143B  00A0               	movwf	___lwdiv@divisor
  1928     143C  3000               	movlw	0
  1929     143D  00A1               	movwf	___lwdiv@divisor+1
  1930     143E  30BC               	movlw	188
  1931     143F  00A2               	movwf	___lwdiv@dividend
  1932     1440  3002               	movlw	2
  1933     1441  00A3               	movwf	___lwdiv@dividend+1
  1934     1442  3188  2012  3193   	fcall	___lwdiv
  1935     1445  0020               	movlb	0	; select bank0
  1936     1446  0820               	movf	?___lwdiv,w
  1937     1447  0021               	movlb	1	; select bank1
  1938     1448  00E9               	movwf	_step^(0+128)
  1939     1449                     l3686:
  1940     1449  0020               	movlb	0	; select bank0
  1941     144A  150C               	bsf	12,2	;volatile
  1942     144B                     l3688:
  1943                           
  1944                           ;main.c: 90:         _delay((unsigned long)((1000)*(32000000/4000.0)));
  1945     144B  3029               	movlw	41
  1946     144C  0021               	movlb	1	; select bank1
  1947     144D  00E8               	movwf	(??_main^(0+128)+1)
  1948     144E  3096               	movlw	150
  1949     144F  00E7               	movwf	??_main^(0+128)
  1950     1450  307F               	movlw	127
  1951     1451                     u4857:
  1952     1451  0B89               	decfsz	9,f
  1953     1452  2C51               	goto	u4857
  1954     1453  0BE7               	decfsz	??_main^(0+128),f
  1955     1454  2C51               	goto	u4857
  1956     1455  0BE8               	decfsz	(??_main^(0+128)+1),f
  1957     1456  2C51               	goto	u4857
  1958     1457                     l3690:
  1959                           
  1960                           ;main.c: 91:         RA2 = 0;
  1961     1457  0020               	movlb	0	; select bank0
  1962     1458  110C               	bcf	12,2	;volatile
  1963     1459                     l3692:
  1964                           
  1965                           ;main.c: 92:         freq = 2000; step = (uint8_t) (freq / 100);
  1966     1459  30D0               	movlw	208
  1967     145A  0022               	movlb	2	; select bank2
  1968     145B  00CF               	movwf	_freq^(0+256)
  1969     145C  3007               	movlw	7
  1970     145D  00D0               	movwf	(_freq^(0+256)+1)
  1971     145E                     l3694:
  1972     145E  3064               	movlw	100
  1973     145F  0020               	movlb	0	; select bank0
  1974     1460  00A0               	movwf	___lwdiv@divisor
  1975     1461  3000               	movlw	0
  1976     1462  00A1               	movwf	___lwdiv@divisor+1
  1977     1463  30D0               	movlw	208
  1978     1464  00A2               	movwf	___lwdiv@dividend
  1979     1465  3007               	movlw	7
  1980     1466  00A3               	movwf	___lwdiv@dividend+1
  1981     1467  3188  2012  3193   	fcall	___lwdiv
  1982     146A  0020               	movlb	0	; select bank0
  1983     146B  0820               	movf	?___lwdiv,w
  1984     146C  0021               	movlb	1	; select bank1
  1985     146D  00E9               	movwf	_step^(0+128)
  1986     146E                     l3696:
  1987                           
  1988                           ;main.c: 93:         _delay((unsigned long)((1000)*(32000000/4000.0)));
  1989     146E  3029               	movlw	41
  1990     146F  0021               	movlb	1	; select bank1
  1991     1470  00E8               	movwf	(??_main^(0+128)+1)
  1992     1471  3096               	movlw	150
  1993     1472  00E7               	movwf	??_main^(0+128)
  1994     1473  307F               	movlw	127
  1995     1474                     u4867:
  1996     1474  0B89               	decfsz	9,f
  1997     1475  2C74               	goto	u4867
  1998     1476  0BE7               	decfsz	??_main^(0+128),f
  1999     1477  2C74               	goto	u4867
  2000     1478  0BE8               	decfsz	(??_main^(0+128)+1),f
  2001     1479  2C74               	goto	u4867
  2002     147A  2C34               	goto	l3682
  2003     147B  3180  280D         	ljmp	start
  2004     147D                     __end_of_main:
  2005                           
  2006                           	psect	text1
  2007     15AE                     __ptext1:	
  2008 ;; *************** function _sine_table_gen *****************
  2009 ;; Defined at:
  2010 ;;		line 122 in file "main.c"
  2011 ;; Parameters:    Size  Location     Type
  2012 ;;  amp             1    wreg     unsigned char 
  2013 ;; Auto vars:     Size  Location     Type
  2014 ;;  amp             1    0[COMMON] unsigned char 
  2015 ;;  i               1   38[BANK2 ] unsigned char 
  2016 ;; Return value:  Size  Location     Type
  2017 ;;                  1    wreg      void 
  2018 ;; Registers used:
  2019 ;;		wreg, fsr0l, fsr0h, fsr1l, fsr1h, status,2, status,0, pclath, cstack
  2020 ;; Tracked objects:
  2021 ;;		On entry : 0/0
  2022 ;;		On exit  : 0/0
  2023 ;;		Unchanged: 0/0
  2024 ;; Data sizes:     COMMON   BANK0   BANK1   BANK2   BANK3   BANK4   BANK5   BANK6   BANK7   BANK8   BANK9  BANK10  BANK1
      +1  BANK12
  2025 ;;      Params:         0       0       0       0       0       0       0       0       0       0       0       0       
      +0       0
  2026 ;;      Locals:         0       0       0       9       0       0       0       0       0       0       0       0       
      +0       0
  2027 ;;      Temps:          0       0       4       0       0       0       0       0       0       0       0       0       
      +0       0
  2028 ;;      Totals:         0       0       4       9       0       0       0       0       0       0       0       0       
      +0       0
  2029 ;;Total ram usage:       13 bytes
  2030 ;; Hardware stack levels used: 1
  2031 ;; Hardware stack levels required when called: 7
  2032 ;; This function calls:
  2033 ;;		___fldiv
  2034 ;;		___flmul
  2035 ;;		___fltol
  2036 ;;		___xxtofl
  2037 ;;		_sinf
  2038 ;; This function is called by:
  2039 ;;		_main
  2040 ;; This function uses a non-reentrant model
  2041 ;;
  2042                           
  2043     15AE                     _sine_table_gen:	
  2044                           ;psect for function _sine_table_gen
  2045                           
  2046     15AE                     l3602:	
  2047                           ;incstack = 0
  2048                           ; Regs used in _sine_table_gen: [wreg-fsr1h+status,2+status,0+pclath+cstack]
  2049                           
  2050                           
  2051                           ;main.c: 124:     for (uint8_t i = 0; i < 200; i++) {
  2052     15AE  0022               	movlb	2	; select bank2
  2053     15AF  01C6               	clrf	sine_table_gen@i^(0+256)
  2054     15B0                     l3608:
  2055                           
  2056                           ;main.c: 125:         *(sine_table + i) = (uint8_t)((float)127 * sinf(1.5708f * (float)i
      +                           / 200)) + 127;
  2057     15B0  0846               	movf	sine_table_gen@i^(0+256),w
  2058     15B1  0021               	movlb	1	; select bank1
  2059     15B2  00E3               	movwf	??_sine_table_gen^(0+128)
  2060     15B3  01E4               	clrf	(??_sine_table_gen^(0+128)+1)
  2061     15B4  01E5               	clrf	(??_sine_table_gen^(0+128)+2)
  2062     15B5  01E6               	clrf	(??_sine_table_gen^(0+128)+3)
  2063     15B6  0866               	movf	(??_sine_table_gen+3)^(0+128),w
  2064     15B7  0020               	movlb	0	; select bank0
  2065     15B8  00A3               	movwf	___xxtofl@val+3
  2066     15B9  0021               	movlb	1	; select bank1
  2067     15BA  0865               	movf	(??_sine_table_gen+2)^(0+128),w
  2068     15BB  0020               	movlb	0	; select bank0
  2069     15BC  00A2               	movwf	___xxtofl@val+2
  2070     15BD  0021               	movlb	1	; select bank1
  2071     15BE  0864               	movf	(??_sine_table_gen+1)^(0+128),w
  2072     15BF  0020               	movlb	0	; select bank0
  2073     15C0  00A1               	movwf	___xxtofl@val+1
  2074     15C1  0021               	movlb	1	; select bank1
  2075     15C2  0863               	movf	??_sine_table_gen^(0+128),w
  2076     15C3  0020               	movlb	0	; select bank0
  2077     15C4  00A0               	movwf	___xxtofl@val
  2078     15C5  3000               	movlw	0
  2079     15C6  3195  2503  3195   	fcall	___xxtofl
  2080     15C9  0020               	movlb	0	; select bank0
  2081     15CA  0823               	movf	?___xxtofl+3,w
  2082     15CB  00B5               	movwf	___flmul@a+3
  2083     15CC  0822               	movf	?___xxtofl+2,w
  2084     15CD  00B4               	movwf	___flmul@a+2
  2085     15CE  0821               	movf	?___xxtofl+1,w
  2086     15CF  00B3               	movwf	___flmul@a+1
  2087     15D0  0820               	movf	?___xxtofl,w
  2088     15D1  00B2               	movwf	___flmul@a
  2089     15D2  303F               	movlw	63
  2090     15D3  00B1               	movwf	___flmul@b+3
  2091     15D4  30C9               	movlw	201
  2092     15D5  00B0               	movwf	___flmul@b+2
  2093     15D6  300F               	movlw	15
  2094     15D7  00AF               	movwf	___flmul@b+1
  2095     15D8  30F9               	movlw	249
  2096     15D9  00AE               	movwf	___flmul@b
  2097     15DA  318D  25C5  3195   	fcall	___flmul
  2098     15DD  0020               	movlb	0	; select bank0
  2099     15DE  0831               	movf	?___flmul+3,w
  2100     15DF  00CF               	movwf	___fldiv@b+3
  2101     15E0  0830               	movf	?___flmul+2,w
  2102     15E1  00CE               	movwf	___fldiv@b+2
  2103     15E2  082F               	movf	?___flmul+1,w
  2104     15E3  00CD               	movwf	___fldiv@b+1
  2105     15E4  082E               	movf	?___flmul,w
  2106     15E5  00CC               	movwf	___fldiv@b
  2107     15E6  3043               	movlw	67
  2108     15E7  00CB               	movwf	___fldiv@a+3
  2109     15E8  3048               	movlw	72
  2110     15E9  00CA               	movwf	___fldiv@a+2
  2111     15EA  3000               	movlw	0
  2112     15EB  00C9               	movwf	___fldiv@a+1
  2113     15EC  3000               	movlw	0
  2114     15ED  00C8               	movwf	___fldiv@a
  2115     15EE  3188  204F  3195   	fcall	___fldiv
  2116     15F1  0020               	movlb	0	; select bank0
  2117     15F2  084B               	movf	?___fldiv+3,w
  2118     15F3  0022               	movlb	2	; select bank2
  2119     15F4  00C1               	movwf	(_sine_table_gen$686+3)^(0+256)
  2120     15F5  0020               	movlb	0	; select bank0
  2121     15F6  084A               	movf	?___fldiv+2,w
  2122     15F7  0022               	movlb	2	; select bank2
  2123     15F8  00C0               	movwf	(_sine_table_gen$686+2)^(0+256)
  2124     15F9  0020               	movlb	0	; select bank0
  2125     15FA  0849               	movf	?___fldiv+1,w
  2126     15FB  0022               	movlb	2	; select bank2
  2127     15FC  00BF               	movwf	(_sine_table_gen$686+1)^(0+256)
  2128     15FD  0020               	movlb	0	; select bank0
  2129     15FE  0848               	movf	?___fldiv,w
  2130     15FF  0022               	movlb	2	; select bank2
  2131     1600  00BE               	movwf	_sine_table_gen$686^(0+256)
  2132     1601                     l3610:
  2133                           
  2134                           ;main.c: 125:         *(sine_table + i) = (uint8_t)((float)127 * sinf(1.5708f * (float)i
      +                           / 200)) + 127;
  2135     1601  0841               	movf	(_sine_table_gen$686+3)^(0+256),w
  2136     1602  0021               	movlb	1	; select bank1
  2137     1603  00DE               	movwf	(sinf@x+3)^(0+128)
  2138     1604  0022               	movlb	2	; select bank2
  2139     1605  0840               	movf	(_sine_table_gen$686+2)^(0+256),w
  2140     1606  0021               	movlb	1	; select bank1
  2141     1607  00DD               	movwf	(sinf@x+2)^(0+128)
  2142     1608  0022               	movlb	2	; select bank2
  2143     1609  083F               	movf	(_sine_table_gen$686+1)^(0+256),w
  2144     160A  0021               	movlb	1	; select bank1
  2145     160B  00DC               	movwf	(sinf@x+1)^(0+128)
  2146     160C  0022               	movlb	2	; select bank2
  2147     160D  083E               	movf	_sine_table_gen$686^(0+256),w
  2148     160E  0021               	movlb	1	; select bank1
  2149     160F  00DB               	movwf	sinf@x^(0+128)
  2150     1610  3180  2035  3195   	fcall	_sinf
  2151     1613  0021               	movlb	1	; select bank1
  2152     1614  085E               	movf	(?_sinf+3)^(0+128),w
  2153     1615  0022               	movlb	2	; select bank2
  2154     1616  00C5               	movwf	(_sine_table_gen$687+3)^(0+256)
  2155     1617  0021               	movlb	1	; select bank1
  2156     1618  085D               	movf	(?_sinf+2)^(0+128),w
  2157     1619  0022               	movlb	2	; select bank2
  2158     161A  00C4               	movwf	(_sine_table_gen$687+2)^(0+256)
  2159     161B  0021               	movlb	1	; select bank1
  2160     161C  085C               	movf	(?_sinf+1)^(0+128),w
  2161     161D  0022               	movlb	2	; select bank2
  2162     161E  00C3               	movwf	(_sine_table_gen$687+1)^(0+256)
  2163     161F  0021               	movlb	1	; select bank1
  2164     1620  085B               	movf	?_sinf^(0+128),w
  2165     1621  0022               	movlb	2	; select bank2
  2166     1622  00C2               	movwf	_sine_table_gen$687^(0+256)
  2167     1623                     l3612:
  2168                           
  2169                           ;main.c: 125:         *(sine_table + i) = (uint8_t)((float)127 * sinf(1.5708f * (float)i
      +                           / 200)) + 127;
  2170     1623  0845               	movf	(_sine_table_gen$687+3)^(0+256),w
  2171     1624  0020               	movlb	0	; select bank0
  2172     1625  00B5               	movwf	___flmul@a+3
  2173     1626  0022               	movlb	2	; select bank2
  2174     1627  0844               	movf	(_sine_table_gen$687+2)^(0+256),w
  2175     1628  0020               	movlb	0	; select bank0
  2176     1629  00B4               	movwf	___flmul@a+2
  2177     162A  0022               	movlb	2	; select bank2
  2178     162B  0843               	movf	(_sine_table_gen$687+1)^(0+256),w
  2179     162C  0020               	movlb	0	; select bank0
  2180     162D  00B3               	movwf	___flmul@a+1
  2181     162E  0022               	movlb	2	; select bank2
  2182     162F  0842               	movf	_sine_table_gen$687^(0+256),w
  2183     1630  0020               	movlb	0	; select bank0
  2184     1631  00B2               	movwf	___flmul@a
  2185     1632  3042               	movlw	66
  2186     1633  00B1               	movwf	___flmul@b+3
  2187     1634  30FE               	movlw	254
  2188     1635  00B0               	movwf	___flmul@b+2
  2189     1636  3000               	movlw	0
  2190     1637  00AF               	movwf	___flmul@b+1
  2191     1638  3000               	movlw	0
  2192     1639  00AE               	movwf	___flmul@b
  2193     163A  318D  25C5  3195   	fcall	___flmul
  2194     163D  0020               	movlb	0	; select bank0
  2195     163E  0831               	movf	?___flmul+3,w
  2196     163F  00E5               	movwf	___fltol@f1+3
  2197     1640  0830               	movf	?___flmul+2,w
  2198     1641  00E4               	movwf	___fltol@f1+2
  2199     1642  082F               	movf	?___flmul+1,w
  2200     1643  00E3               	movwf	___fltol@f1+1
  2201     1644  082E               	movf	?___flmul,w
  2202     1645  00E2               	movwf	___fltol@f1
  2203     1646  3193  238D  3195   	fcall	___fltol
  2204     1649  0020               	movlb	0	; select bank0
  2205     164A  0862               	movf	?___fltol,w
  2206     164B  3E7F               	addlw	127
  2207     164C  0021               	movlb	1	; select bank1
  2208     164D  00E3               	movwf	??_sine_table_gen^(0+128)
  2209     164E  0022               	movlb	2	; select bank2
  2210     164F  0846               	movf	sine_table_gen@i^(0+256),w
  2211     1650  3E28               	addlw	40
  2212     1651  0021               	movlb	1	; select bank1
  2213     1652  00E4               	movwf	(??_sine_table_gen+1)^(0+128)
  2214     1653  01E5               	clrf	((??_sine_table_gen+1)^(0+128)+1)
  2215     1654  3023               	movlw	35
  2216     1655  3DE5               	addwfc	((??_sine_table_gen+1)^(0+128)+1),f
  2217     1656  0864               	movf	(??_sine_table_gen+1)^(0+128),w
  2218     1657  0086               	movwf	6
  2219     1658  0865               	movf	(??_sine_table_gen+2)^(0+128),w
  2220     1659  0087               	movwf	7
  2221     165A  0863               	movf	??_sine_table_gen^(0+128),w
  2222     165B  0081               	movwf	1
  2223     165C                     l3614:
  2224                           
  2225                           ;main.c: 126:     }
  2226     165C  3001               	movlw	1
  2227     165D  00E3               	movwf	??_sine_table_gen^(0+128)
  2228     165E  0863               	movf	??_sine_table_gen^(0+128),w
  2229     165F  0022               	movlb	2	; select bank2
  2230     1660  07C6               	addwf	sine_table_gen@i^(0+256),f
  2231     1661                     l3616:
  2232     1661  30C8               	movlw	200
  2233     1662  0246               	subwf	sine_table_gen@i^(0+256),w
  2234     1663  1C03               	skipc
  2235     1664  2E66               	goto	u4761
  2236     1665  2E67               	goto	u4760
  2237     1666                     u4761:
  2238     1666  2DB0               	goto	l3608
  2239     1667                     u4760:
  2240     1667                     l84:
  2241     1667  0008               	return
  2242     1668                     __end_of_sine_table_gen:
  2243                           
  2244                           	psect	text2
  2245     0035                     __ptext2:	
  2246 ;; *************** function _sinf *****************
  2247 ;; Defined at:
  2248 ;;		line 26 in file "C:\Program Files\Microchip\xc8\v2.40\pic\sources\c99\common\sinf.c"
  2249 ;; Parameters:    Size  Location     Type
  2250 ;;  x               4   59[BANK1 ] float 
  2251 ;; Auto vars:     Size  Location     Type
  2252 ;;  ix              4   26[BANK2 ] unsigned long 
  2253 ;;  y               4   22[BANK2 ] unsigned long 
  2254 ;;  __xc8_float_    4    4[BANK2 ] struct .
  2255 ;;  n               4    0[BANK2 ] long 
  2256 ;;  sign            2   16[BANK2 ] int 
  2257 ;; Return value:  Size  Location     Type
  2258 ;;                  4   59[BANK1 ] float 
  2259 ;; Registers used:
  2260 ;;		wreg, fsr0l, fsr0h, fsr1l, fsr1h, status,2, status,0, pclath, cstack
  2261 ;; Tracked objects:
  2262 ;;		On entry : 0/0
  2263 ;;		On exit  : 0/0
  2264 ;;		Unchanged: 0/0
  2265 ;; Data sizes:     COMMON   BANK0   BANK1   BANK2   BANK3   BANK4   BANK5   BANK6   BANK7   BANK8   BANK9  BANK10  BANK1
      +1  BANK12
  2266 ;;      Params:         0       0       4       0       0       0       0       0       0       0       0       0       
      +0       0
  2267 ;;      Locals:         0       0       0      30       0       0       0       0       0       0       0       0       
      +0       0
  2268 ;;      Temps:          0       0       4       0       0       0       0       0       0       0       0       0       
      +0       0
  2269 ;;      Totals:         0       0       8      30       0       0       0       0       0       0       0       0       
      +0       0
  2270 ;;Total ram usage:       38 bytes
  2271 ;; Hardware stack levels used: 1
  2272 ;; Hardware stack levels required when called: 6
  2273 ;; This function calls:
  2274 ;;		___cosdf
  2275 ;;		___fladd
  2276 ;;		___flneg
  2277 ;;		___flsub
  2278 ;;		___rem_pio2f
  2279 ;;		___sindf
  2280 ;; This function is called by:
  2281 ;;		_sine_table_gen
  2282 ;; This function uses a non-reentrant model
  2283 ;;
  2284                           
  2285     0035                     _sinf:	
  2286                           ;psect for function _sinf
  2287                           
  2288     0035                     l691:	
  2289                           ;incstack = 0
  2290                           ; Regs used in _sinf: [wreg-fsr1h+status,2+status,0+pclath+cstack]
  2291                           
  2292     0035                     l3322:
  2293     0035  0021               	movlb	1	; select bank1
  2294     0036  085E               	movf	(sinf@x+3)^(0+128),w
  2295     0037  0022               	movlb	2	; select bank2
  2296     0038  00A7               	movwf	(sinf@__xc8_float_word+3)^(0+256)
  2297     0039  0021               	movlb	1	; select bank1
  2298     003A  085D               	movf	(sinf@x+2)^(0+128),w
  2299     003B  0022               	movlb	2	; select bank2
  2300     003C  00A6               	movwf	(sinf@__xc8_float_word+2)^(0+256)
  2301     003D  0021               	movlb	1	; select bank1
  2302     003E  085C               	movf	(sinf@x+1)^(0+128),w
  2303     003F  0022               	movlb	2	; select bank2
  2304     0040  00A5               	movwf	(sinf@__xc8_float_word+1)^(0+256)
  2305     0041  0021               	movlb	1	; select bank1
  2306     0042  085B               	movf	sinf@x^(0+128),w
  2307     0043  0022               	movlb	2	; select bank2
  2308     0044  00A4               	movwf	sinf@__xc8_float_word^(0+256)
  2309     0045  0827               	movf	(sinf@__xc8_float_word+3)^(0+256),w
  2310     0046  00BD               	movwf	(sinf@ix+3)^(0+256)
  2311     0047  0826               	movf	(sinf@__xc8_float_word+2)^(0+256),w
  2312     0048  00BC               	movwf	(sinf@ix+2)^(0+256)
  2313     0049  0825               	movf	(sinf@__xc8_float_word+1)^(0+256),w
  2314     004A  00BB               	movwf	(sinf@ix+1)^(0+256)
  2315     004B  0824               	movf	sinf@__xc8_float_word^(0+256),w
  2316     004C  00BA               	movwf	sinf@ix^(0+256)
  2317     004D                     l3324:
  2318     004D  083A               	movf	sinf@ix^(0+256),w
  2319     004E  0021               	movlb	1	; select bank1
  2320     004F  00DF               	movwf	??_sinf^(0+128)
  2321     0050  0022               	movlb	2	; select bank2
  2322     0051  083B               	movf	(sinf@ix+1)^(0+256),w
  2323     0052  0021               	movlb	1	; select bank1
  2324     0053  00E0               	movwf	(??_sinf^(0+128)+1)
  2325     0054  0022               	movlb	2	; select bank2
  2326     0055  083C               	movf	(sinf@ix+2)^(0+256),w
  2327     0056  0021               	movlb	1	; select bank1
  2328     0057  00E1               	movwf	(??_sinf^(0+128)+2)
  2329     0058  0022               	movlb	2	; select bank2
  2330     0059  083D               	movf	(sinf@ix+3)^(0+256),w
  2331     005A  0021               	movlb	1	; select bank1
  2332     005B  00E2               	movwf	(??_sinf^(0+128)+3)
  2333     005C  301F               	movlw	31
  2334     005D                     u4345:
  2335     005D  36E2               	lsrf	(??_sinf^(0+128)+3),f
  2336     005E  0CE1               	rrf	(??_sinf^(0+128)+2),f
  2337     005F  0CE0               	rrf	(??_sinf^(0+128)+1),f
  2338     0060  0CDF               	rrf	??_sinf^(0+128),f
  2339     0061                     u4340:
  2340     0061  0B89               	decfsz	9,f
  2341     0062  285D               	goto	u4345
  2342     0063  0860               	movf	(??_sinf+1)^(0+128),w
  2343     0064  0022               	movlb	2	; select bank2
  2344     0065  00B1               	movwf	(sinf@sign+1)^(0+256)
  2345     0066  0021               	movlb	1	; select bank1
  2346     0067  085F               	movf	??_sinf^(0+128),w
  2347     0068  0022               	movlb	2	; select bank2
  2348     0069  00B0               	movwf	sinf@sign^(0+256)
  2349     006A                     l3326:
  2350     006A  30FF               	movlw	255
  2351     006B  05BA               	andwf	sinf@ix^(0+256),f
  2352     006C  30FF               	movlw	255
  2353     006D  05BB               	andwf	(sinf@ix+1)^(0+256),f
  2354     006E  30FF               	movlw	255
  2355     006F  05BC               	andwf	(sinf@ix+2)^(0+256),f
  2356     0070  307F               	movlw	127
  2357     0071  05BD               	andwf	(sinf@ix+3)^(0+256),f
  2358     0072  30DB               	movlw	219
  2359     0073  023A               	subwf	sinf@ix^(0+256),w
  2360     0074  300F               	movlw	15
  2361     0075  3B3B               	subwfb	(sinf@ix+1)^(0+256),w
  2362     0076  3049               	movlw	73
  2363     0077  3B3C               	subwfb	(sinf@ix+2)^(0+256),w
  2364     0078  303F               	movlw	63
  2365     0079  3B3D               	subwfb	(sinf@ix+3)^(0+256),w
  2366     007A  1803               	btfsc	3,0
  2367     007B  287D               	goto	u4351
  2368     007C  287E               	goto	u4350
  2369     007D                     u4351:
  2370     007D  28AC               	goto	l3336
  2371     007E                     u4350:
  2372     007E                     l3328:
  2373     007E  3080               	movlw	128
  2374     007F  0022               	movlb	2	; select bank2
  2375     0080  023C               	subwf	(sinf@ix+2)^(0+256),w
  2376     0081  3039               	movlw	57
  2377     0082  3B3D               	subwfb	(sinf@ix+3)^(0+256),w
  2378     0083  1803               	btfsc	3,0
  2379     0084  2886               	goto	u4361
  2380     0085  2887               	goto	u4360
  2381     0086                     u4361:
  2382     0086  2888               	goto	l3332
  2383     0087                     u4360:
  2384     0087                     l3330:
  2385     0087  2C8A               	goto	l695
  2386     0088                     l3332:
  2387     0088  0021               	movlb	1	; select bank1
  2388     0089  085E               	movf	(sinf@x+3)^(0+128),w
  2389     008A  0020               	movlb	0	; select bank0
  2390     008B  00E7               	movwf	___sindf@x+3
  2391     008C  0021               	movlb	1	; select bank1
  2392     008D  085D               	movf	(sinf@x+2)^(0+128),w
  2393     008E  0020               	movlb	0	; select bank0
  2394     008F  00E6               	movwf	___sindf@x+2
  2395     0090  0021               	movlb	1	; select bank1
  2396     0091  085C               	movf	(sinf@x+1)^(0+128),w
  2397     0092  0020               	movlb	0	; select bank0
  2398     0093  00E5               	movwf	___sindf@x+1
  2399     0094  0021               	movlb	1	; select bank1
  2400     0095  085B               	movf	sinf@x^(0+128),w
  2401     0096  0020               	movlb	0	; select bank0
  2402     0097  00E4               	movwf	___sindf@x
  2403     0098  3189  21F9  3180   	fcall	___sindf
  2404     009B  0020               	movlb	0	; select bank0
  2405     009C  0867               	movf	?___sindf+3,w
  2406     009D  0021               	movlb	1	; select bank1
  2407     009E  00DE               	movwf	(?_sinf+3)^(0+128)
  2408     009F  0020               	movlb	0	; select bank0
  2409     00A0  0866               	movf	?___sindf+2,w
  2410     00A1  0021               	movlb	1	; select bank1
  2411     00A2  00DD               	movwf	(?_sinf+2)^(0+128)
  2412     00A3  0020               	movlb	0	; select bank0
  2413     00A4  0865               	movf	?___sindf+1,w
  2414     00A5  0021               	movlb	1	; select bank1
  2415     00A6  00DC               	movwf	(?_sinf+1)^(0+128)
  2416     00A7  0020               	movlb	0	; select bank0
  2417     00A8  0864               	movf	?___sindf,w
  2418     00A9  0021               	movlb	1	; select bank1
  2419     00AA  00DB               	movwf	?_sinf^(0+128)
  2420     00AB  2C8A               	goto	l695
  2421     00AC                     l3336:
  2422     00AC  30D2               	movlw	210
  2423     00AD  0022               	movlb	2	; select bank2
  2424     00AE  023A               	subwf	sinf@ix^(0+256),w
  2425     00AF  3053               	movlw	83
  2426     00B0  3B3B               	subwfb	(sinf@ix+1)^(0+256),w
  2427     00B1  307B               	movlw	123
  2428     00B2  3B3C               	subwfb	(sinf@ix+2)^(0+256),w
  2429     00B3  3040               	movlw	64
  2430     00B4  3B3D               	subwfb	(sinf@ix+3)^(0+256),w
  2431     00B5  1803               	btfsc	3,0
  2432     00B6  28B8               	goto	u4371
  2433     00B7  28B9               	goto	u4370
  2434     00B8                     u4371:
  2435     00B8  2A0F               	goto	l3360
  2436     00B9                     u4370:
  2437     00B9                     l3338:
  2438     00B9  30E4               	movlw	228
  2439     00BA  0022               	movlb	2	; select bank2
  2440     00BB  023A               	subwf	sinf@ix^(0+256),w
  2441     00BC  30CB               	movlw	203
  2442     00BD  3B3B               	subwfb	(sinf@ix+1)^(0+256),w
  2443     00BE  3016               	movlw	22
  2444     00BF  3B3C               	subwfb	(sinf@ix+2)^(0+256),w
  2445     00C0  3040               	movlw	64
  2446     00C1  3B3D               	subwfb	(sinf@ix+3)^(0+256),w
  2447     00C2  1803               	btfsc	3,0
  2448     00C3  28C5               	goto	u4381
  2449     00C4  28C6               	goto	u4380
  2450     00C5                     u4381:
  2451     00C5  2976               	goto	l3352
  2452     00C6                     u4380:
  2453     00C6                     l3340:
  2454     00C6  0022               	movlb	2	; select bank2
  2455     00C7  0830               	movf	sinf@sign^(0+256),w
  2456     00C8  0431               	iorwf	(sinf@sign+1)^(0+256),w
  2457     00C9  1903               	btfsc	3,2
  2458     00CA  28CC               	goto	u4391
  2459     00CB  28CD               	goto	u4390
  2460     00CC                     u4391:
  2461     00CC  2927               	goto	l3348
  2462     00CD                     u4390:
  2463     00CD                     l3342:
  2464     00CD  0021               	movlb	1	; select bank1
  2465     00CE  085E               	movf	(sinf@x+3)^(0+128),w
  2466     00CF  0020               	movlb	0	; select bank0
  2467     00D0  00CF               	movwf	___fladd@a+3
  2468     00D1  0021               	movlb	1	; select bank1
  2469     00D2  085D               	movf	(sinf@x+2)^(0+128),w
  2470     00D3  0020               	movlb	0	; select bank0
  2471     00D4  00CE               	movwf	___fladd@a+2
  2472     00D5  0021               	movlb	1	; select bank1
  2473     00D6  085C               	movf	(sinf@x+1)^(0+128),w
  2474     00D7  0020               	movlb	0	; select bank0
  2475     00D8  00CD               	movwf	___fladd@a+1
  2476     00D9  0021               	movlb	1	; select bank1
  2477     00DA  085B               	movf	sinf@x^(0+128),w
  2478     00DB  0020               	movlb	0	; select bank0
  2479     00DC  00CC               	movwf	___fladd@a
  2480     00DD  303F               	movlw	63
  2481     00DE  00CB               	movwf	___fladd@b+3
  2482     00DF  30C9               	movlw	201
  2483     00E0  00CA               	movwf	___fladd@b+2
  2484     00E1  300F               	movlw	15
  2485     00E2  00C9               	movwf	___fladd@b+1
  2486     00E3  30DB               	movlw	219
  2487     00E4  00C8               	movwf	___fladd@b
  2488     00E5  318B  23BD  3180   	fcall	___fladd
  2489     00E8  0020               	movlb	0	; select bank0
  2490     00E9  084B               	movf	?___fladd+3,w
  2491     00EA  0022               	movlb	2	; select bank2
  2492     00EB  00B5               	movwf	(_sinf$688+3)^(0+256)
  2493     00EC  0020               	movlb	0	; select bank0
  2494     00ED  084A               	movf	?___fladd+2,w
  2495     00EE  0022               	movlb	2	; select bank2
  2496     00EF  00B4               	movwf	(_sinf$688+2)^(0+256)
  2497     00F0  0020               	movlb	0	; select bank0
  2498     00F1  0849               	movf	?___fladd+1,w
  2499     00F2  0022               	movlb	2	; select bank2
  2500     00F3  00B3               	movwf	(_sinf$688+1)^(0+256)
  2501     00F4  0020               	movlb	0	; select bank0
  2502     00F5  0848               	movf	?___fladd,w
  2503     00F6  0022               	movlb	2	; select bank2
  2504     00F7  00B2               	movwf	_sinf$688^(0+256)
  2505     00F8  0835               	movf	(_sinf$688+3)^(0+256),w
  2506     00F9  0020               	movlb	0	; select bank0
  2507     00FA  00DF               	movwf	___cosdf@x+3
  2508     00FB  0022               	movlb	2	; select bank2
  2509     00FC  0834               	movf	(_sinf$688+2)^(0+256),w
  2510     00FD  0020               	movlb	0	; select bank0
  2511     00FE  00DE               	movwf	___cosdf@x+2
  2512     00FF  0022               	movlb	2	; select bank2
  2513     0100  0833               	movf	(_sinf$688+1)^(0+256),w
  2514     0101  0020               	movlb	0	; select bank0
  2515     0102  00DD               	movwf	___cosdf@x+1
  2516     0103  0022               	movlb	2	; select bank2
  2517     0104  0832               	movf	_sinf$688^(0+256),w
  2518     0105  0020               	movlb	0	; select bank0
  2519     0106  00DC               	movwf	___cosdf@x
  2520     0107  3196  2668  3180   	fcall	___cosdf
  2521     010A  0020               	movlb	0	; select bank0
  2522     010B  085F               	movf	?___cosdf+3,w
  2523     010C  00E3               	movwf	___flneg@f1+3
  2524     010D  085E               	movf	?___cosdf+2,w
  2525     010E  00E2               	movwf	___flneg@f1+2
  2526     010F  085D               	movf	?___cosdf+1,w
  2527     0110  00E1               	movwf	___flneg@f1+1
  2528     0111  085C               	movf	?___cosdf,w
  2529     0112  00E0               	movwf	___flneg@f1
  2530     0113  3192  2266  3180   	fcall	___flneg
  2531     0116  0020               	movlb	0	; select bank0
  2532     0117  0863               	movf	?___flneg+3,w
  2533     0118  0021               	movlb	1	; select bank1
  2534     0119  00DE               	movwf	(?_sinf+3)^(0+128)
  2535     011A  0020               	movlb	0	; select bank0
  2536     011B  0862               	movf	?___flneg+2,w
  2537     011C  0021               	movlb	1	; select bank1
  2538     011D  00DD               	movwf	(?_sinf+2)^(0+128)
  2539     011E  0020               	movlb	0	; select bank0
  2540     011F  0861               	movf	?___flneg+1,w
  2541     0120  0021               	movlb	1	; select bank1
  2542     0121  00DC               	movwf	(?_sinf+1)^(0+128)
  2543     0122  0020               	movlb	0	; select bank0
  2544     0123  0860               	movf	?___flneg,w
  2545     0124  0021               	movlb	1	; select bank1
  2546     0125  00DB               	movwf	?_sinf^(0+128)
  2547     0126  2C8A               	goto	l695
  2548     0127                     l3348:
  2549     0127  30BF               	movlw	191
  2550     0128  0020               	movlb	0	; select bank0
  2551     0129  00CB               	movwf	___fladd@b+3
  2552     012A  30C9               	movlw	201
  2553     012B  00CA               	movwf	___fladd@b+2
  2554     012C  300F               	movlw	15
  2555     012D  00C9               	movwf	___fladd@b+1
  2556     012E  30DB               	movlw	219
  2557     012F  00C8               	movwf	___fladd@b
  2558     0130  0021               	movlb	1	; select bank1
  2559     0131  085E               	movf	(sinf@x+3)^(0+128),w
  2560     0132  0020               	movlb	0	; select bank0
  2561     0133  00CF               	movwf	___fladd@a+3
  2562     0134  0021               	movlb	1	; select bank1
  2563     0135  085D               	movf	(sinf@x+2)^(0+128),w
  2564     0136  0020               	movlb	0	; select bank0
  2565     0137  00CE               	movwf	___fladd@a+2
  2566     0138  0021               	movlb	1	; select bank1
  2567     0139  085C               	movf	(sinf@x+1)^(0+128),w
  2568     013A  0020               	movlb	0	; select bank0
  2569     013B  00CD               	movwf	___fladd@a+1
  2570     013C  0021               	movlb	1	; select bank1
  2571     013D  085B               	movf	sinf@x^(0+128),w
  2572     013E  0020               	movlb	0	; select bank0
  2573     013F  00CC               	movwf	___fladd@a
  2574     0140  318B  23BD  3180   	fcall	___fladd
  2575     0143  0020               	movlb	0	; select bank0
  2576     0144  084B               	movf	?___fladd+3,w
  2577     0145  0022               	movlb	2	; select bank2
  2578     0146  00B5               	movwf	(_sinf$688+3)^(0+256)
  2579     0147  0020               	movlb	0	; select bank0
  2580     0148  084A               	movf	?___fladd+2,w
  2581     0149  0022               	movlb	2	; select bank2
  2582     014A  00B4               	movwf	(_sinf$688+2)^(0+256)
  2583     014B  0020               	movlb	0	; select bank0
  2584     014C  0849               	movf	?___fladd+1,w
  2585     014D  0022               	movlb	2	; select bank2
  2586     014E  00B3               	movwf	(_sinf$688+1)^(0+256)
  2587     014F  0020               	movlb	0	; select bank0
  2588     0150  0848               	movf	?___fladd,w
  2589     0151  0022               	movlb	2	; select bank2
  2590     0152  00B2               	movwf	_sinf$688^(0+256)
  2591     0153  0835               	movf	(_sinf$688+3)^(0+256),w
  2592     0154  0020               	movlb	0	; select bank0
  2593     0155  00DF               	movwf	___cosdf@x+3
  2594     0156  0022               	movlb	2	; select bank2
  2595     0157  0834               	movf	(_sinf$688+2)^(0+256),w
  2596     0158  0020               	movlb	0	; select bank0
  2597     0159  00DE               	movwf	___cosdf@x+2
  2598     015A  0022               	movlb	2	; select bank2
  2599     015B  0833               	movf	(_sinf$688+1)^(0+256),w
  2600     015C  0020               	movlb	0	; select bank0
  2601     015D  00DD               	movwf	___cosdf@x+1
  2602     015E  0022               	movlb	2	; select bank2
  2603     015F  0832               	movf	_sinf$688^(0+256),w
  2604     0160  0020               	movlb	0	; select bank0
  2605     0161  00DC               	movwf	___cosdf@x
  2606     0162  3196  2668  3180   	fcall	___cosdf
  2607     0165  0020               	movlb	0	; select bank0
  2608     0166  085F               	movf	?___cosdf+3,w
  2609     0167  0021               	movlb	1	; select bank1
  2610     0168  00DE               	movwf	(?_sinf+3)^(0+128)
  2611     0169  0020               	movlb	0	; select bank0
  2612     016A  085E               	movf	?___cosdf+2,w
  2613     016B  0021               	movlb	1	; select bank1
  2614     016C  00DD               	movwf	(?_sinf+2)^(0+128)
  2615     016D  0020               	movlb	0	; select bank0
  2616     016E  085D               	movf	?___cosdf+1,w
  2617     016F  0021               	movlb	1	; select bank1
  2618     0170  00DC               	movwf	(?_sinf+1)^(0+128)
  2619     0171  0020               	movlb	0	; select bank0
  2620     0172  085C               	movf	?___cosdf,w
  2621     0173  0021               	movlb	1	; select bank1
  2622     0174  00DB               	movwf	?_sinf^(0+128)
  2623     0175  2C8A               	goto	l695
  2624     0176                     l3352:
  2625     0176  0022               	movlb	2	; select bank2
  2626     0177  0830               	movf	sinf@sign^(0+256),w
  2627     0178  0431               	iorwf	(sinf@sign+1)^(0+256),w
  2628     0179  1D03               	btfss	3,2
  2629     017A  297C               	goto	u4401
  2630     017B  297D               	goto	u4400
  2631     017C                     u4401:
  2632     017C  29B5               	goto	l3356
  2633     017D                     u4400:
  2634     017D                     l3354:
  2635     017D  0021               	movlb	1	; select bank1
  2636     017E  085E               	movf	(sinf@x+3)^(0+128),w
  2637     017F  0020               	movlb	0	; select bank0
  2638     0180  00CF               	movwf	___fladd@a+3
  2639     0181  0021               	movlb	1	; select bank1
  2640     0182  085D               	movf	(sinf@x+2)^(0+128),w
  2641     0183  0020               	movlb	0	; select bank0
  2642     0184  00CE               	movwf	___fladd@a+2
  2643     0185  0021               	movlb	1	; select bank1
  2644     0186  085C               	movf	(sinf@x+1)^(0+128),w
  2645     0187  0020               	movlb	0	; select bank0
  2646     0188  00CD               	movwf	___fladd@a+1
  2647     0189  0021               	movlb	1	; select bank1
  2648     018A  085B               	movf	sinf@x^(0+128),w
  2649     018B  0020               	movlb	0	; select bank0
  2650     018C  00CC               	movwf	___fladd@a
  2651     018D  30C0               	movlw	192
  2652     018E  00CB               	movwf	___fladd@b+3
  2653     018F  3049               	movlw	73
  2654     0190  00CA               	movwf	___fladd@b+2
  2655     0191  300F               	movlw	15
  2656     0192  00C9               	movwf	___fladd@b+1
  2657     0193  30DB               	movlw	219
  2658     0194  00C8               	movwf	___fladd@b
  2659     0195  318B  23BD  3180   	fcall	___fladd
  2660     0198  0020               	movlb	0	; select bank0
  2661     0199  084B               	movf	?___fladd+3,w
  2662     019A  00E3               	movwf	___flneg@f1+3
  2663     019B  084A               	movf	?___fladd+2,w
  2664     019C  00E2               	movwf	___flneg@f1+2
  2665     019D  0849               	movf	?___fladd+1,w
  2666     019E  00E1               	movwf	___flneg@f1+1
  2667     019F  0848               	movf	?___fladd,w
  2668     01A0  00E0               	movwf	___flneg@f1
  2669     01A1  3192  2266  3180   	fcall	___flneg
  2670     01A4  0020               	movlb	0	; select bank0
  2671     01A5  0863               	movf	?___flneg+3,w
  2672     01A6  0022               	movlb	2	; select bank2
  2673     01A7  00AB               	movwf	(_sinf$485+3)^(0+256)
  2674     01A8  0020               	movlb	0	; select bank0
  2675     01A9  0862               	movf	?___flneg+2,w
  2676     01AA  0022               	movlb	2	; select bank2
  2677     01AB  00AA               	movwf	(_sinf$485+2)^(0+256)
  2678     01AC  0020               	movlb	0	; select bank0
  2679     01AD  0861               	movf	?___flneg+1,w
  2680     01AE  0022               	movlb	2	; select bank2
  2681     01AF  00A9               	movwf	(_sinf$485+1)^(0+256)
  2682     01B0  0020               	movlb	0	; select bank0
  2683     01B1  0860               	movf	?___flneg,w
  2684     01B2  0022               	movlb	2	; select bank2
  2685     01B3  00A8               	movwf	_sinf$485^(0+256)
  2686     01B4  29EC               	goto	l703
  2687     01B5                     l3356:
  2688     01B5  0021               	movlb	1	; select bank1
  2689     01B6  085E               	movf	(sinf@x+3)^(0+128),w
  2690     01B7  0020               	movlb	0	; select bank0
  2691     01B8  00CF               	movwf	___fladd@a+3
  2692     01B9  0021               	movlb	1	; select bank1
  2693     01BA  085D               	movf	(sinf@x+2)^(0+128),w
  2694     01BB  0020               	movlb	0	; select bank0
  2695     01BC  00CE               	movwf	___fladd@a+2
  2696     01BD  0021               	movlb	1	; select bank1
  2697     01BE  085C               	movf	(sinf@x+1)^(0+128),w
  2698     01BF  0020               	movlb	0	; select bank0
  2699     01C0  00CD               	movwf	___fladd@a+1
  2700     01C1  0021               	movlb	1	; select bank1
  2701     01C2  085B               	movf	sinf@x^(0+128),w
  2702     01C3  0020               	movlb	0	; select bank0
  2703     01C4  00CC               	movwf	___fladd@a
  2704     01C5  3040               	movlw	64
  2705     01C6  00CB               	movwf	___fladd@b+3
  2706     01C7  3049               	movlw	73
  2707     01C8  00CA               	movwf	___fladd@b+2
  2708     01C9  300F               	movlw	15
  2709     01CA  00C9               	movwf	___fladd@b+1
  2710     01CB  30DB               	movlw	219
  2711     01CC  00C8               	movwf	___fladd@b
  2712     01CD  318B  23BD  3180   	fcall	___fladd
  2713     01D0  0020               	movlb	0	; select bank0
  2714     01D1  084B               	movf	?___fladd+3,w
  2715     01D2  00E3               	movwf	___flneg@f1+3
  2716     01D3  084A               	movf	?___fladd+2,w
  2717     01D4  00E2               	movwf	___flneg@f1+2
  2718     01D5  0849               	movf	?___fladd+1,w
  2719     01D6  00E1               	movwf	___flneg@f1+1
  2720     01D7  0848               	movf	?___fladd,w
  2721     01D8  00E0               	movwf	___flneg@f1
  2722     01D9  3192  2266  3180   	fcall	___flneg
  2723     01DC  0020               	movlb	0	; select bank0
  2724     01DD  0863               	movf	?___flneg+3,w
  2725     01DE  0022               	movlb	2	; select bank2
  2726     01DF  00AB               	movwf	(_sinf$485+3)^(0+256)
  2727     01E0  0020               	movlb	0	; select bank0
  2728     01E1  0862               	movf	?___flneg+2,w
  2729     01E2  0022               	movlb	2	; select bank2
  2730     01E3  00AA               	movwf	(_sinf$485+2)^(0+256)
  2731     01E4  0020               	movlb	0	; select bank0
  2732     01E5  0861               	movf	?___flneg+1,w
  2733     01E6  0022               	movlb	2	; select bank2
  2734     01E7  00A9               	movwf	(_sinf$485+1)^(0+256)
  2735     01E8  0020               	movlb	0	; select bank0
  2736     01E9  0860               	movf	?___flneg,w
  2737     01EA  0022               	movlb	2	; select bank2
  2738     01EB  00A8               	movwf	_sinf$485^(0+256)
  2739     01EC                     l703:
  2740     01EC  082B               	movf	(_sinf$485+3)^(0+256),w
  2741     01ED  0020               	movlb	0	; select bank0
  2742     01EE  00E7               	movwf	___sindf@x+3
  2743     01EF  0022               	movlb	2	; select bank2
  2744     01F0  082A               	movf	(_sinf$485+2)^(0+256),w
  2745     01F1  0020               	movlb	0	; select bank0
  2746     01F2  00E6               	movwf	___sindf@x+2
  2747     01F3  0022               	movlb	2	; select bank2
  2748     01F4  0829               	movf	(_sinf$485+1)^(0+256),w
  2749     01F5  0020               	movlb	0	; select bank0
  2750     01F6  00E5               	movwf	___sindf@x+1
  2751     01F7  0022               	movlb	2	; select bank2
  2752     01F8  0828               	movf	_sinf$485^(0+256),w
  2753     01F9  0020               	movlb	0	; select bank0
  2754     01FA  00E4               	movwf	___sindf@x
  2755     01FB  3189  21F9  3180   	fcall	___sindf
  2756     01FE  0020               	movlb	0	; select bank0
  2757     01FF  0867               	movf	?___sindf+3,w
  2758     0200  0021               	movlb	1	; select bank1
  2759     0201  00DE               	movwf	(?_sinf+3)^(0+128)
  2760     0202  0020               	movlb	0	; select bank0
  2761     0203  0866               	movf	?___sindf+2,w
  2762     0204  0021               	movlb	1	; select bank1
  2763     0205  00DD               	movwf	(?_sinf+2)^(0+128)
  2764     0206  0020               	movlb	0	; select bank0
  2765     0207  0865               	movf	?___sindf+1,w
  2766     0208  0021               	movlb	1	; select bank1
  2767     0209  00DC               	movwf	(?_sinf+1)^(0+128)
  2768     020A  0020               	movlb	0	; select bank0
  2769     020B  0864               	movf	?___sindf,w
  2770     020C  0021               	movlb	1	; select bank1
  2771     020D  00DB               	movwf	?_sinf^(0+128)
  2772     020E  2C8A               	goto	l695
  2773     020F                     l3360:
  2774     020F  30D6               	movlw	214
  2775     0210  0022               	movlb	2	; select bank2
  2776     0211  023A               	subwf	sinf@ix^(0+256),w
  2777     0212  3031               	movlw	49
  2778     0213  3B3B               	subwfb	(sinf@ix+1)^(0+256),w
  2779     0214  30E2               	movlw	226
  2780     0215  3B3C               	subwfb	(sinf@ix+2)^(0+256),w
  2781     0216  3040               	movlw	64
  2782     0217  3B3D               	subwfb	(sinf@ix+3)^(0+256),w
  2783     0218  1803               	btfsc	3,0
  2784     0219  2A1B               	goto	u4411
  2785     021A  2A1C               	goto	u4410
  2786     021B                     u4411:
  2787     021B  2B5C               	goto	l3384
  2788     021C                     u4410:
  2789     021C                     l3362:
  2790     021C  30E0               	movlw	224
  2791     021D  0022               	movlb	2	; select bank2
  2792     021E  023A               	subwf	sinf@ix^(0+256),w
  2793     021F  30ED               	movlw	237
  2794     0220  3B3B               	subwfb	(sinf@ix+1)^(0+256),w
  2795     0221  30AF               	movlw	175
  2796     0222  3B3C               	subwfb	(sinf@ix+2)^(0+256),w
  2797     0223  3040               	movlw	64
  2798     0224  3B3D               	subwfb	(sinf@ix+3)^(0+256),w
  2799     0225  1803               	btfsc	3,0
  2800     0226  2A28               	goto	u4421
  2801     0227  2A29               	goto	u4420
  2802     0228                     u4421:
  2803     0228  2AD9               	goto	l3376
  2804     0229                     u4420:
  2805     0229                     l3364:
  2806     0229  0022               	movlb	2	; select bank2
  2807     022A  0830               	movf	sinf@sign^(0+256),w
  2808     022B  0431               	iorwf	(sinf@sign+1)^(0+256),w
  2809     022C  1903               	btfsc	3,2
  2810     022D  2A2F               	goto	u4431
  2811     022E  2A30               	goto	u4430
  2812     022F                     u4431:
  2813     022F  2A7F               	goto	l3372
  2814     0230                     u4430:
  2815     0230                     l3366:
  2816     0230  3040               	movlw	64
  2817     0231  0020               	movlb	0	; select bank0
  2818     0232  00CB               	movwf	___fladd@b+3
  2819     0233  3096               	movlw	150
  2820     0234  00CA               	movwf	___fladd@b+2
  2821     0235  30CB               	movlw	203
  2822     0236  00C9               	movwf	___fladd@b+1
  2823     0237  30E4               	movlw	228
  2824     0238  00C8               	movwf	___fladd@b
  2825     0239  0021               	movlb	1	; select bank1
  2826     023A  085E               	movf	(sinf@x+3)^(0+128),w
  2827     023B  0020               	movlb	0	; select bank0
  2828     023C  00CF               	movwf	___fladd@a+3
  2829     023D  0021               	movlb	1	; select bank1
  2830     023E  085D               	movf	(sinf@x+2)^(0+128),w
  2831     023F  0020               	movlb	0	; select bank0
  2832     0240  00CE               	movwf	___fladd@a+2
  2833     0241  0021               	movlb	1	; select bank1
  2834     0242  085C               	movf	(sinf@x+1)^(0+128),w
  2835     0243  0020               	movlb	0	; select bank0
  2836     0244  00CD               	movwf	___fladd@a+1
  2837     0245  0021               	movlb	1	; select bank1
  2838     0246  085B               	movf	sinf@x^(0+128),w
  2839     0247  0020               	movlb	0	; select bank0
  2840     0248  00CC               	movwf	___fladd@a
  2841     0249  318B  23BD  3180   	fcall	___fladd
  2842     024C  0020               	movlb	0	; select bank0
  2843     024D  084B               	movf	?___fladd+3,w
  2844     024E  0022               	movlb	2	; select bank2
  2845     024F  00B5               	movwf	(_sinf$688+3)^(0+256)
  2846     0250  0020               	movlb	0	; select bank0
  2847     0251  084A               	movf	?___fladd+2,w
  2848     0252  0022               	movlb	2	; select bank2
  2849     0253  00B4               	movwf	(_sinf$688+2)^(0+256)
  2850     0254  0020               	movlb	0	; select bank0
  2851     0255  0849               	movf	?___fladd+1,w
  2852     0256  0022               	movlb	2	; select bank2
  2853     0257  00B3               	movwf	(_sinf$688+1)^(0+256)
  2854     0258  0020               	movlb	0	; select bank0
  2855     0259  0848               	movf	?___fladd,w
  2856     025A  0022               	movlb	2	; select bank2
  2857     025B  00B2               	movwf	_sinf$688^(0+256)
  2858     025C  0835               	movf	(_sinf$688+3)^(0+256),w
  2859     025D  0020               	movlb	0	; select bank0
  2860     025E  00DF               	movwf	___cosdf@x+3
  2861     025F  0022               	movlb	2	; select bank2
  2862     0260  0834               	movf	(_sinf$688+2)^(0+256),w
  2863     0261  0020               	movlb	0	; select bank0
  2864     0262  00DE               	movwf	___cosdf@x+2
  2865     0263  0022               	movlb	2	; select bank2
  2866     0264  0833               	movf	(_sinf$688+1)^(0+256),w
  2867     0265  0020               	movlb	0	; select bank0
  2868     0266  00DD               	movwf	___cosdf@x+1
  2869     0267  0022               	movlb	2	; select bank2
  2870     0268  0832               	movf	_sinf$688^(0+256),w
  2871     0269  0020               	movlb	0	; select bank0
  2872     026A  00DC               	movwf	___cosdf@x
  2873     026B  3196  2668  3180   	fcall	___cosdf
  2874     026E  0020               	movlb	0	; select bank0
  2875     026F  085F               	movf	?___cosdf+3,w
  2876     0270  0021               	movlb	1	; select bank1
  2877     0271  00DE               	movwf	(?_sinf+3)^(0+128)
  2878     0272  0020               	movlb	0	; select bank0
  2879     0273  085E               	movf	?___cosdf+2,w
  2880     0274  0021               	movlb	1	; select bank1
  2881     0275  00DD               	movwf	(?_sinf+2)^(0+128)
  2882     0276  0020               	movlb	0	; select bank0
  2883     0277  085D               	movf	?___cosdf+1,w
  2884     0278  0021               	movlb	1	; select bank1
  2885     0279  00DC               	movwf	(?_sinf+1)^(0+128)
  2886     027A  0020               	movlb	0	; select bank0
  2887     027B  085C               	movf	?___cosdf,w
  2888     027C  0021               	movlb	1	; select bank1
  2889     027D  00DB               	movwf	?_sinf^(0+128)
  2890     027E  2C8A               	goto	l695
  2891     027F                     l3372:
  2892     027F  0021               	movlb	1	; select bank1
  2893     0280  085E               	movf	(sinf@x+3)^(0+128),w
  2894     0281  0020               	movlb	0	; select bank0
  2895     0282  00CF               	movwf	___fladd@a+3
  2896     0283  0021               	movlb	1	; select bank1
  2897     0284  085D               	movf	(sinf@x+2)^(0+128),w
  2898     0285  0020               	movlb	0	; select bank0
  2899     0286  00CE               	movwf	___fladd@a+2
  2900     0287  0021               	movlb	1	; select bank1
  2901     0288  085C               	movf	(sinf@x+1)^(0+128),w
  2902     0289  0020               	movlb	0	; select bank0
  2903     028A  00CD               	movwf	___fladd@a+1
  2904     028B  0021               	movlb	1	; select bank1
  2905     028C  085B               	movf	sinf@x^(0+128),w
  2906     028D  0020               	movlb	0	; select bank0
  2907     028E  00CC               	movwf	___fladd@a
  2908     028F  30C0               	movlw	192
  2909     0290  00CB               	movwf	___fladd@b+3
  2910     0291  3096               	movlw	150
  2911     0292  00CA               	movwf	___fladd@b+2
  2912     0293  30CB               	movlw	203
  2913     0294  00C9               	movwf	___fladd@b+1
  2914     0295  30E4               	movlw	228
  2915     0296  00C8               	movwf	___fladd@b
  2916     0297  318B  23BD  3180   	fcall	___fladd
  2917     029A  0020               	movlb	0	; select bank0
  2918     029B  084B               	movf	?___fladd+3,w
  2919     029C  0022               	movlb	2	; select bank2
  2920     029D  00B5               	movwf	(_sinf$688+3)^(0+256)
  2921     029E  0020               	movlb	0	; select bank0
  2922     029F  084A               	movf	?___fladd+2,w
  2923     02A0  0022               	movlb	2	; select bank2
  2924     02A1  00B4               	movwf	(_sinf$688+2)^(0+256)
  2925     02A2  0020               	movlb	0	; select bank0
  2926     02A3  0849               	movf	?___fladd+1,w
  2927     02A4  0022               	movlb	2	; select bank2
  2928     02A5  00B3               	movwf	(_sinf$688+1)^(0+256)
  2929     02A6  0020               	movlb	0	; select bank0
  2930     02A7  0848               	movf	?___fladd,w
  2931     02A8  0022               	movlb	2	; select bank2
  2932     02A9  00B2               	movwf	_sinf$688^(0+256)
  2933     02AA  0835               	movf	(_sinf$688+3)^(0+256),w
  2934     02AB  0020               	movlb	0	; select bank0
  2935     02AC  00DF               	movwf	___cosdf@x+3
  2936     02AD  0022               	movlb	2	; select bank2
  2937     02AE  0834               	movf	(_sinf$688+2)^(0+256),w
  2938     02AF  0020               	movlb	0	; select bank0
  2939     02B0  00DE               	movwf	___cosdf@x+2
  2940     02B1  0022               	movlb	2	; select bank2
  2941     02B2  0833               	movf	(_sinf$688+1)^(0+256),w
  2942     02B3  0020               	movlb	0	; select bank0
  2943     02B4  00DD               	movwf	___cosdf@x+1
  2944     02B5  0022               	movlb	2	; select bank2
  2945     02B6  0832               	movf	_sinf$688^(0+256),w
  2946     02B7  0020               	movlb	0	; select bank0
  2947     02B8  00DC               	movwf	___cosdf@x
  2948     02B9  3196  2668  3180   	fcall	___cosdf
  2949     02BC  0020               	movlb	0	; select bank0
  2950     02BD  085F               	movf	?___cosdf+3,w
  2951     02BE  00E3               	movwf	___flneg@f1+3
  2952     02BF  085E               	movf	?___cosdf+2,w
  2953     02C0  00E2               	movwf	___flneg@f1+2
  2954     02C1  085D               	movf	?___cosdf+1,w
  2955     02C2  00E1               	movwf	___flneg@f1+1
  2956     02C3  085C               	movf	?___cosdf,w
  2957     02C4  00E0               	movwf	___flneg@f1
  2958     02C5  3192  2266  3180   	fcall	___flneg
  2959     02C8  0020               	movlb	0	; select bank0
  2960     02C9  0863               	movf	?___flneg+3,w
  2961     02CA  0021               	movlb	1	; select bank1
  2962     02CB  00DE               	movwf	(?_sinf+3)^(0+128)
  2963     02CC  0020               	movlb	0	; select bank0
  2964     02CD  0862               	movf	?___flneg+2,w
  2965     02CE  0021               	movlb	1	; select bank1
  2966     02CF  00DD               	movwf	(?_sinf+2)^(0+128)
  2967     02D0  0020               	movlb	0	; select bank0
  2968     02D1  0861               	movf	?___flneg+1,w
  2969     02D2  0021               	movlb	1	; select bank1
  2970     02D3  00DC               	movwf	(?_sinf+1)^(0+128)
  2971     02D4  0020               	movlb	0	; select bank0
  2972     02D5  0860               	movf	?___flneg,w
  2973     02D6  0021               	movlb	1	; select bank1
  2974     02D7  00DB               	movwf	?_sinf^(0+128)
  2975     02D8  2C8A               	goto	l695
  2976     02D9                     l3376:
  2977     02D9  0022               	movlb	2	; select bank2
  2978     02DA  0830               	movf	sinf@sign^(0+256),w
  2979     02DB  0431               	iorwf	(sinf@sign+1)^(0+256),w
  2980     02DC  1D03               	btfss	3,2
  2981     02DD  2ADF               	goto	u4441
  2982     02DE  2AE0               	goto	u4440
  2983     02DF                     u4441:
  2984     02DF  2B0D               	goto	l3380
  2985     02E0                     u4440:
  2986     02E0                     l3378:
  2987     02E0  30C0               	movlw	192
  2988     02E1  0020               	movlb	0	; select bank0
  2989     02E2  00CB               	movwf	___fladd@b+3
  2990     02E3  30C9               	movlw	201
  2991     02E4  00CA               	movwf	___fladd@b+2
  2992     02E5  300F               	movlw	15
  2993     02E6  00C9               	movwf	___fladd@b+1
  2994     02E7  30DB               	movlw	219
  2995     02E8  00C8               	movwf	___fladd@b
  2996     02E9  0021               	movlb	1	; select bank1
  2997     02EA  085E               	movf	(sinf@x+3)^(0+128),w
  2998     02EB  0020               	movlb	0	; select bank0
  2999     02EC  00CF               	movwf	___fladd@a+3
  3000     02ED  0021               	movlb	1	; select bank1
  3001     02EE  085D               	movf	(sinf@x+2)^(0+128),w
  3002     02EF  0020               	movlb	0	; select bank0
  3003     02F0  00CE               	movwf	___fladd@a+2
  3004     02F1  0021               	movlb	1	; select bank1
  3005     02F2  085C               	movf	(sinf@x+1)^(0+128),w
  3006     02F3  0020               	movlb	0	; select bank0
  3007     02F4  00CD               	movwf	___fladd@a+1
  3008     02F5  0021               	movlb	1	; select bank1
  3009     02F6  085B               	movf	sinf@x^(0+128),w
  3010     02F7  0020               	movlb	0	; select bank0
  3011     02F8  00CC               	movwf	___fladd@a
  3012     02F9  318B  23BD  3180   	fcall	___fladd
  3013     02FC  0020               	movlb	0	; select bank0
  3014     02FD  084B               	movf	?___fladd+3,w
  3015     02FE  0022               	movlb	2	; select bank2
  3016     02FF  00AF               	movwf	(_sinf$486+3)^(0+256)
  3017     0300  0020               	movlb	0	; select bank0
  3018     0301  084A               	movf	?___fladd+2,w
  3019     0302  0022               	movlb	2	; select bank2
  3020     0303  00AE               	movwf	(_sinf$486+2)^(0+256)
  3021     0304  0020               	movlb	0	; select bank0
  3022     0305  0849               	movf	?___fladd+1,w
  3023     0306  0022               	movlb	2	; select bank2
  3024     0307  00AD               	movwf	(_sinf$486+1)^(0+256)
  3025     0308  0020               	movlb	0	; select bank0
  3026     0309  0848               	movf	?___fladd,w
  3027     030A  0022               	movlb	2	; select bank2
  3028     030B  00AC               	movwf	_sinf$486^(0+256)
  3029     030C  2B39               	goto	l711
  3030     030D                     l3380:
  3031     030D  3040               	movlw	64
  3032     030E  0020               	movlb	0	; select bank0
  3033     030F  00CB               	movwf	___fladd@b+3
  3034     0310  30C9               	movlw	201
  3035     0311  00CA               	movwf	___fladd@b+2
  3036     0312  300F               	movlw	15
  3037     0313  00C9               	movwf	___fladd@b+1
  3038     0314  30DB               	movlw	219
  3039     0315  00C8               	movwf	___fladd@b
  3040     0316  0021               	movlb	1	; select bank1
  3041     0317  085E               	movf	(sinf@x+3)^(0+128),w
  3042     0318  0020               	movlb	0	; select bank0
  3043     0319  00CF               	movwf	___fladd@a+3
  3044     031A  0021               	movlb	1	; select bank1
  3045     031B  085D               	movf	(sinf@x+2)^(0+128),w
  3046     031C  0020               	movlb	0	; select bank0
  3047     031D  00CE               	movwf	___fladd@a+2
  3048     031E  0021               	movlb	1	; select bank1
  3049     031F  085C               	movf	(sinf@x+1)^(0+128),w
  3050     0320  0020               	movlb	0	; select bank0
  3051     0321  00CD               	movwf	___fladd@a+1
  3052     0322  0021               	movlb	1	; select bank1
  3053     0323  085B               	movf	sinf@x^(0+128),w
  3054     0324  0020               	movlb	0	; select bank0
  3055     0325  00CC               	movwf	___fladd@a
  3056     0326  318B  23BD  3180   	fcall	___fladd
  3057     0329  0020               	movlb	0	; select bank0
  3058     032A  084B               	movf	?___fladd+3,w
  3059     032B  0022               	movlb	2	; select bank2
  3060     032C  00AF               	movwf	(_sinf$486+3)^(0+256)
  3061     032D  0020               	movlb	0	; select bank0
  3062     032E  084A               	movf	?___fladd+2,w
  3063     032F  0022               	movlb	2	; select bank2
  3064     0330  00AE               	movwf	(_sinf$486+2)^(0+256)
  3065     0331  0020               	movlb	0	; select bank0
  3066     0332  0849               	movf	?___fladd+1,w
  3067     0333  0022               	movlb	2	; select bank2
  3068     0334  00AD               	movwf	(_sinf$486+1)^(0+256)
  3069     0335  0020               	movlb	0	; select bank0
  3070     0336  0848               	movf	?___fladd,w
  3071     0337  0022               	movlb	2	; select bank2
  3072     0338  00AC               	movwf	_sinf$486^(0+256)
  3073     0339                     l711:
  3074     0339  082F               	movf	(_sinf$486+3)^(0+256),w
  3075     033A  0020               	movlb	0	; select bank0
  3076     033B  00E7               	movwf	___sindf@x+3
  3077     033C  0022               	movlb	2	; select bank2
  3078     033D  082E               	movf	(_sinf$486+2)^(0+256),w
  3079     033E  0020               	movlb	0	; select bank0
  3080     033F  00E6               	movwf	___sindf@x+2
  3081     0340  0022               	movlb	2	; select bank2
  3082     0341  082D               	movf	(_sinf$486+1)^(0+256),w
  3083     0342  0020               	movlb	0	; select bank0
  3084     0343  00E5               	movwf	___sindf@x+1
  3085     0344  0022               	movlb	2	; select bank2
  3086     0345  082C               	movf	_sinf$486^(0+256),w
  3087     0346  0020               	movlb	0	; select bank0
  3088     0347  00E4               	movwf	___sindf@x
  3089     0348  3189  21F9  3180   	fcall	___sindf
  3090     034B  0020               	movlb	0	; select bank0
  3091     034C  0867               	movf	?___sindf+3,w
  3092     034D  0021               	movlb	1	; select bank1
  3093     034E  00DE               	movwf	(?_sinf+3)^(0+128)
  3094     034F  0020               	movlb	0	; select bank0
  3095     0350  0866               	movf	?___sindf+2,w
  3096     0351  0021               	movlb	1	; select bank1
  3097     0352  00DD               	movwf	(?_sinf+2)^(0+128)
  3098     0353  0020               	movlb	0	; select bank0
  3099     0354  0865               	movf	?___sindf+1,w
  3100     0355  0021               	movlb	1	; select bank1
  3101     0356  00DC               	movwf	(?_sinf+1)^(0+128)
  3102     0357  0020               	movlb	0	; select bank0
  3103     0358  0864               	movf	?___sindf,w
  3104     0359  0021               	movlb	1	; select bank1
  3105     035A  00DB               	movwf	?_sinf^(0+128)
  3106     035B  2C8A               	goto	l695
  3107     035C                     l3384:
  3108     035C  3080               	movlw	128
  3109     035D  0022               	movlb	2	; select bank2
  3110     035E  023C               	subwf	(sinf@ix+2)^(0+256),w
  3111     035F  307F               	movlw	127
  3112     0360  3B3D               	subwfb	(sinf@ix+3)^(0+256),w
  3113     0361  1C03               	btfss	3,0
  3114     0362  2B64               	goto	u4451
  3115     0363  2B65               	goto	u4450
  3116     0364                     u4451:
  3117     0364  2B99               	goto	l3390
  3118     0365                     u4450:
  3119     0365                     l3386:
  3120     0365  0021               	movlb	1	; select bank1
  3121     0366  085E               	movf	(sinf@x+3)^(0+128),w
  3122     0367  0020               	movlb	0	; select bank0
  3123     0368  00DF               	movwf	___flsub@a+3
  3124     0369  0021               	movlb	1	; select bank1
  3125     036A  085D               	movf	(sinf@x+2)^(0+128),w
  3126     036B  0020               	movlb	0	; select bank0
  3127     036C  00DE               	movwf	___flsub@a+2
  3128     036D  0021               	movlb	1	; select bank1
  3129     036E  085C               	movf	(sinf@x+1)^(0+128),w
  3130     036F  0020               	movlb	0	; select bank0
  3131     0370  00DD               	movwf	___flsub@a+1
  3132     0371  0021               	movlb	1	; select bank1
  3133     0372  085B               	movf	sinf@x^(0+128),w
  3134     0373  0020               	movlb	0	; select bank0
  3135     0374  00DC               	movwf	___flsub@a
  3136     0375  0021               	movlb	1	; select bank1
  3137     0376  085E               	movf	(sinf@x+3)^(0+128),w
  3138     0377  0020               	movlb	0	; select bank0
  3139     0378  00E3               	movwf	___flsub@b+3
  3140     0379  0021               	movlb	1	; select bank1
  3141     037A  085D               	movf	(sinf@x+2)^(0+128),w
  3142     037B  0020               	movlb	0	; select bank0
  3143     037C  00E2               	movwf	___flsub@b+2
  3144     037D  0021               	movlb	1	; select bank1
  3145     037E  085C               	movf	(sinf@x+1)^(0+128),w
  3146     037F  0020               	movlb	0	; select bank0
  3147     0380  00E1               	movwf	___flsub@b+1
  3148     0381  0021               	movlb	1	; select bank1
  3149     0382  085B               	movf	sinf@x^(0+128),w
  3150     0383  0020               	movlb	0	; select bank0
  3151     0384  00E0               	movwf	___flsub@b
  3152     0385  3192  22D9  3180   	fcall	___flsub
  3153     0388  0020               	movlb	0	; select bank0
  3154     0389  085F               	movf	?___flsub+3,w
  3155     038A  0021               	movlb	1	; select bank1
  3156     038B  00DE               	movwf	(?_sinf+3)^(0+128)
  3157     038C  0020               	movlb	0	; select bank0
  3158     038D  085E               	movf	?___flsub+2,w
  3159     038E  0021               	movlb	1	; select bank1
  3160     038F  00DD               	movwf	(?_sinf+2)^(0+128)
  3161     0390  0020               	movlb	0	; select bank0
  3162     0391  085D               	movf	?___flsub+1,w
  3163     0392  0021               	movlb	1	; select bank1
  3164     0393  00DC               	movwf	(?_sinf+1)^(0+128)
  3165     0394  0020               	movlb	0	; select bank0
  3166     0395  085C               	movf	?___flsub,w
  3167     0396  0021               	movlb	1	; select bank1
  3168     0397  00DB               	movwf	?_sinf^(0+128)
  3169     0398  2C8A               	goto	l695
  3170     0399                     l3390:
  3171     0399  0021               	movlb	1	; select bank1
  3172     039A  085E               	movf	(sinf@x+3)^(0+128),w
  3173     039B  00BB               	movwf	(___rem_pio2f@x+3)^(0+128)
  3174     039C  085D               	movf	(sinf@x+2)^(0+128),w
  3175     039D  00BA               	movwf	(___rem_pio2f@x+2)^(0+128)
  3176     039E  085C               	movf	(sinf@x+1)^(0+128),w
  3177     039F  00B9               	movwf	(___rem_pio2f@x+1)^(0+128)
  3178     03A0  085B               	movf	sinf@x^(0+128),w
  3179     03A1  00B8               	movwf	___rem_pio2f@x^(0+128)
  3180     03A2  3036               	movlw	(low (sinf@y| (0+256)))& (0+255)
  3181     03A3  00BC               	movwf	___rem_pio2f@y^(0+128)
  3182     03A4  3184  248B  3180   	fcall	___rem_pio2f
  3183     03A7  0021               	movlb	1	; select bank1
  3184     03A8  0838               	movf	?___rem_pio2f^(0+128),w
  3185     03A9  0022               	movlb	2	; select bank2
  3186     03AA  00A0               	movwf	sinf@n^(0+256)
  3187     03AB  0021               	movlb	1	; select bank1
  3188     03AC  0839               	movf	(?___rem_pio2f+1)^(0+128),w
  3189     03AD  0022               	movlb	2	; select bank2
  3190     03AE  00A1               	movwf	(sinf@n+1)^(0+256)
  3191     03AF  0D89               	rlf	9,f
  3192     03B0  3B89               	subwfb	9,f
  3193     03B1  0989               	comf	9,f
  3194     03B2  00A2               	movwf	(sinf@n+2)^(0+256)
  3195     03B3  00A3               	movwf	(sinf@n+3)^(0+256)
  3196     03B4  2C5D               	goto	l3410
  3197     03B5                     l3392:
  3198     03B5  0022               	movlb	2	; select bank2
  3199     03B6  0839               	movf	(sinf@y+3)^(0+256),w
  3200     03B7  0020               	movlb	0	; select bank0
  3201     03B8  00E7               	movwf	___sindf@x+3
  3202     03B9  0022               	movlb	2	; select bank2
  3203     03BA  0838               	movf	(sinf@y+2)^(0+256),w
  3204     03BB  0020               	movlb	0	; select bank0
  3205     03BC  00E6               	movwf	___sindf@x+2
  3206     03BD  0022               	movlb	2	; select bank2
  3207     03BE  0837               	movf	(sinf@y+1)^(0+256),w
  3208     03BF  0020               	movlb	0	; select bank0
  3209     03C0  00E5               	movwf	___sindf@x+1
  3210     03C1  0022               	movlb	2	; select bank2
  3211     03C2  0836               	movf	sinf@y^(0+256),w
  3212     03C3  0020               	movlb	0	; select bank0
  3213     03C4  00E4               	movwf	___sindf@x
  3214     03C5  3189  21F9  3180   	fcall	___sindf
  3215     03C8  0020               	movlb	0	; select bank0
  3216     03C9  0867               	movf	?___sindf+3,w
  3217     03CA  0021               	movlb	1	; select bank1
  3218     03CB  00DE               	movwf	(?_sinf+3)^(0+128)
  3219     03CC  0020               	movlb	0	; select bank0
  3220     03CD  0866               	movf	?___sindf+2,w
  3221     03CE  0021               	movlb	1	; select bank1
  3222     03CF  00DD               	movwf	(?_sinf+2)^(0+128)
  3223     03D0  0020               	movlb	0	; select bank0
  3224     03D1  0865               	movf	?___sindf+1,w
  3225     03D2  0021               	movlb	1	; select bank1
  3226     03D3  00DC               	movwf	(?_sinf+1)^(0+128)
  3227     03D4  0020               	movlb	0	; select bank0
  3228     03D5  0864               	movf	?___sindf,w
  3229     03D6  0021               	movlb	1	; select bank1
  3230     03D7  00DB               	movwf	?_sinf^(0+128)
  3231     03D8  2C8A               	goto	l695
  3232     03D9                     l3396:
  3233     03D9  0022               	movlb	2	; select bank2
  3234     03DA  0839               	movf	(sinf@y+3)^(0+256),w
  3235     03DB  0020               	movlb	0	; select bank0
  3236     03DC  00DF               	movwf	___cosdf@x+3
  3237     03DD  0022               	movlb	2	; select bank2
  3238     03DE  0838               	movf	(sinf@y+2)^(0+256),w
  3239     03DF  0020               	movlb	0	; select bank0
  3240     03E0  00DE               	movwf	___cosdf@x+2
  3241     03E1  0022               	movlb	2	; select bank2
  3242     03E2  0837               	movf	(sinf@y+1)^(0+256),w
  3243     03E3  0020               	movlb	0	; select bank0
  3244     03E4  00DD               	movwf	___cosdf@x+1
  3245     03E5  0022               	movlb	2	; select bank2
  3246     03E6  0836               	movf	sinf@y^(0+256),w
  3247     03E7  0020               	movlb	0	; select bank0
  3248     03E8  00DC               	movwf	___cosdf@x
  3249     03E9  3196  2668  3180   	fcall	___cosdf
  3250     03EC  0020               	movlb	0	; select bank0
  3251     03ED  085F               	movf	?___cosdf+3,w
  3252     03EE  0021               	movlb	1	; select bank1
  3253     03EF  00DE               	movwf	(?_sinf+3)^(0+128)
  3254     03F0  0020               	movlb	0	; select bank0
  3255     03F1  085E               	movf	?___cosdf+2,w
  3256     03F2  0021               	movlb	1	; select bank1
  3257     03F3  00DD               	movwf	(?_sinf+2)^(0+128)
  3258     03F4  0020               	movlb	0	; select bank0
  3259     03F5  085D               	movf	?___cosdf+1,w
  3260     03F6  0021               	movlb	1	; select bank1
  3261     03F7  00DC               	movwf	(?_sinf+1)^(0+128)
  3262     03F8  0020               	movlb	0	; select bank0
  3263     03F9  085C               	movf	?___cosdf,w
  3264     03FA  0021               	movlb	1	; select bank1
  3265     03FB  00DB               	movwf	?_sinf^(0+128)
  3266     03FC  2C8A               	goto	l695
  3267     03FD                     l3400:
  3268     03FD  0022               	movlb	2	; select bank2
  3269     03FE  0839               	movf	(sinf@y+3)^(0+256),w
  3270     03FF  0020               	movlb	0	; select bank0
  3271     0400  00E3               	movwf	___flneg@f1+3
  3272     0401  0022               	movlb	2	; select bank2
  3273     0402  0838               	movf	(sinf@y+2)^(0+256),w
  3274     0403  0020               	movlb	0	; select bank0
  3275     0404  00E2               	movwf	___flneg@f1+2
  3276     0405  0022               	movlb	2	; select bank2
  3277     0406  0837               	movf	(sinf@y+1)^(0+256),w
  3278     0407  0020               	movlb	0	; select bank0
  3279     0408  00E1               	movwf	___flneg@f1+1
  3280     0409  0022               	movlb	2	; select bank2
  3281     040A  0836               	movf	sinf@y^(0+256),w
  3282     040B  0020               	movlb	0	; select bank0
  3283     040C  00E0               	movwf	___flneg@f1
  3284     040D  3192  2266  3180   	fcall	___flneg
  3285     0410  0020               	movlb	0	; select bank0
  3286     0411  0863               	movf	?___flneg+3,w
  3287     0412  00E7               	movwf	___sindf@x+3
  3288     0413  0862               	movf	?___flneg+2,w
  3289     0414  00E6               	movwf	___sindf@x+2
  3290     0415  0861               	movf	?___flneg+1,w
  3291     0416  00E5               	movwf	___sindf@x+1
  3292     0417  0860               	movf	?___flneg,w
  3293     0418  00E4               	movwf	___sindf@x
  3294     0419  3189  21F9  3180   	fcall	___sindf
  3295     041C  0020               	movlb	0	; select bank0
  3296     041D  0867               	movf	?___sindf+3,w
  3297     041E  0021               	movlb	1	; select bank1
  3298     041F  00DE               	movwf	(?_sinf+3)^(0+128)
  3299     0420  0020               	movlb	0	; select bank0
  3300     0421  0866               	movf	?___sindf+2,w
  3301     0422  0021               	movlb	1	; select bank1
  3302     0423  00DD               	movwf	(?_sinf+2)^(0+128)
  3303     0424  0020               	movlb	0	; select bank0
  3304     0425  0865               	movf	?___sindf+1,w
  3305     0426  0021               	movlb	1	; select bank1
  3306     0427  00DC               	movwf	(?_sinf+1)^(0+128)
  3307     0428  0020               	movlb	0	; select bank0
  3308     0429  0864               	movf	?___sindf,w
  3309     042A  0021               	movlb	1	; select bank1
  3310     042B  00DB               	movwf	?_sinf^(0+128)
  3311     042C  2C8A               	goto	l695
  3312     042D                     l3404:
  3313     042D  0022               	movlb	2	; select bank2
  3314     042E  0839               	movf	(sinf@y+3)^(0+256),w
  3315     042F  0020               	movlb	0	; select bank0
  3316     0430  00DF               	movwf	___cosdf@x+3
  3317     0431  0022               	movlb	2	; select bank2
  3318     0432  0838               	movf	(sinf@y+2)^(0+256),w
  3319     0433  0020               	movlb	0	; select bank0
  3320     0434  00DE               	movwf	___cosdf@x+2
  3321     0435  0022               	movlb	2	; select bank2
  3322     0436  0837               	movf	(sinf@y+1)^(0+256),w
  3323     0437  0020               	movlb	0	; select bank0
  3324     0438  00DD               	movwf	___cosdf@x+1
  3325     0439  0022               	movlb	2	; select bank2
  3326     043A  0836               	movf	sinf@y^(0+256),w
  3327     043B  0020               	movlb	0	; select bank0
  3328     043C  00DC               	movwf	___cosdf@x
  3329     043D  3196  2668  3180   	fcall	___cosdf
  3330     0440  0020               	movlb	0	; select bank0
  3331     0441  085F               	movf	?___cosdf+3,w
  3332     0442  00E3               	movwf	___flneg@f1+3
  3333     0443  085E               	movf	?___cosdf+2,w
  3334     0444  00E2               	movwf	___flneg@f1+2
  3335     0445  085D               	movf	?___cosdf+1,w
  3336     0446  00E1               	movwf	___flneg@f1+1
  3337     0447  085C               	movf	?___cosdf,w
  3338     0448  00E0               	movwf	___flneg@f1
  3339     0449  3192  2266  3180   	fcall	___flneg
  3340     044C  0020               	movlb	0	; select bank0
  3341     044D  0863               	movf	?___flneg+3,w
  3342     044E  0021               	movlb	1	; select bank1
  3343     044F  00DE               	movwf	(?_sinf+3)^(0+128)
  3344     0450  0020               	movlb	0	; select bank0
  3345     0451  0862               	movf	?___flneg+2,w
  3346     0452  0021               	movlb	1	; select bank1
  3347     0453  00DD               	movwf	(?_sinf+2)^(0+128)
  3348     0454  0020               	movlb	0	; select bank0
  3349     0455  0861               	movf	?___flneg+1,w
  3350     0456  0021               	movlb	1	; select bank1
  3351     0457  00DC               	movwf	(?_sinf+1)^(0+128)
  3352     0458  0020               	movlb	0	; select bank0
  3353     0459  0860               	movf	?___flneg,w
  3354     045A  0021               	movlb	1	; select bank1
  3355     045B  00DB               	movwf	?_sinf^(0+128)
  3356     045C  2C8A               	goto	l695
  3357     045D                     l3410:
  3358     045D  3003               	movlw	3
  3359     045E  0520               	andwf	sinf@n^(0+256),w
  3360     045F  0021               	movlb	1	; select bank1
  3361     0460  00DF               	movwf	??_sinf^(0+128)
  3362     0461  3000               	movlw	0
  3363     0462  0022               	movlb	2	; select bank2
  3364     0463  0521               	andwf	(sinf@n+1)^(0+256),w
  3365     0464  0021               	movlb	1	; select bank1
  3366     0465  00E0               	movwf	(??_sinf^(0+128)+1)
  3367     0466  3000               	movlw	0
  3368     0467  0022               	movlb	2	; select bank2
  3369     0468  0522               	andwf	(sinf@n+2)^(0+256),w
  3370     0469  0021               	movlb	1	; select bank1
  3371     046A  00E1               	movwf	(??_sinf^(0+128)+2)
  3372     046B  3000               	movlw	0
  3373     046C  0022               	movlb	2	; select bank2
  3374     046D  0523               	andwf	(sinf@n+3)^(0+256),w
  3375     046E  0021               	movlb	1	; select bank1
  3376     046F  00E2               	movwf	(??_sinf^(0+128)+3)
  3377                           
  3378                           ; Switch on 2 bytes has been partitioned into a top level switch of size 1, and 2 sub-sw
      +                          itches
  3379                           ; Switch size 1, requested type "simple"
  3380                           ; Number of cases is 1, Range of values is 0 to 0
  3381                           ; switch strategies available:
  3382                           ; Name         Instructions Cycles
  3383                           ; simple_byte            4     3 (average)
  3384                           ; direct_byte            8     6 (fixed)
  3385                           ; jumptable            260     6 (fixed)
  3386                           ;	Chosen strategy is simple_byte
  3387     0470  0862               	movf	(??_sinf+3)^(0+128),w
  3388     0471  3A00               	xorlw	0	; case 0
  3389     0472  1903               	skipnz
  3390     0473  2C85               	goto	l3766
  3391     0474  2C2D               	goto	l3404
  3392     0475                     l3764:
  3393                           
  3394                           ; Switch on 2 bytes has been partitioned into a top level switch of size 1, and 1 sub-sw
      +                          itches
  3395                           ; Switch size 1, requested type "simple"
  3396                           ; Number of cases is 1, Range of values is 0 to 0
  3397                           ; switch strategies available:
  3398                           ; Name         Instructions Cycles
  3399                           ; simple_byte            4     3 (average)
  3400                           ; direct_byte            8     6 (fixed)
  3401                           ; jumptable            260     6 (fixed)
  3402                           ;	Chosen strategy is simple_byte
  3403     0475  0860               	movf	(??_sinf+1)^(0+128),w
  3404     0476  3A00               	xorlw	0	; case 0
  3405     0477  1903               	skipnz
  3406     0478  2C7A               	goto	l3768
  3407     0479  2C2D               	goto	l3404
  3408     047A                     l3768:
  3409                           
  3410                           ; Switch size 1, requested type "simple"
  3411                           ; Number of cases is 3, Range of values is 0 to 2
  3412                           ; switch strategies available:
  3413                           ; Name         Instructions Cycles
  3414                           ; simple_byte           10     6 (average)
  3415                           ; direct_byte           12     6 (fixed)
  3416                           ; jumptable            260     6 (fixed)
  3417                           ;	Chosen strategy is simple_byte
  3418     047A  085F               	movf	??_sinf^(0+128),w
  3419     047B  3A00               	xorlw	0	; case 0
  3420     047C  1903               	skipnz
  3421     047D  2BB5               	goto	l3392
  3422     047E  3A01               	xorlw	1	; case 1
  3423     047F  1903               	skipnz
  3424     0480  2BD9               	goto	l3396
  3425     0481  3A03               	xorlw	3	; case 2
  3426     0482  1903               	skipnz
  3427     0483  2BFD               	goto	l3400
  3428     0484  2C2D               	goto	l3404
  3429     0485                     l3766:
  3430                           
  3431                           ; Switch size 1, requested type "simple"
  3432                           ; Number of cases is 1, Range of values is 0 to 0
  3433                           ; switch strategies available:
  3434                           ; Name         Instructions Cycles
  3435                           ; simple_byte            4     3 (average)
  3436                           ; direct_byte            8     6 (fixed)
  3437                           ; jumptable            260     6 (fixed)
  3438                           ;	Chosen strategy is simple_byte
  3439     0485  0861               	movf	(??_sinf+2)^(0+128),w
  3440     0486  3A00               	xorlw	0	; case 0
  3441     0487  1903               	skipnz
  3442     0488  2C75               	goto	l3764
  3443     0489  2C2D               	goto	l3404
  3444     048A                     l695:
  3445     048A  0008               	return
  3446     048B                     __end_of_sinf:
  3447                           
  3448                           	psect	text3
  3449     09F9                     __ptext3:	
  3450 ;; *************** function ___sindf *****************
  3451 ;; Defined at:
  3452 ;;		line 26 in file "C:\Program Files\Microchip\xc8\v2.40\pic\sources\c99\common\__sindf.c"
  3453 ;; Parameters:    Size  Location     Type
  3454 ;;  x               4   68[BANK0 ] float 
  3455 ;; Auto vars:     Size  Location     Type
  3456 ;;  z               4   48[BANK1 ] float 
  3457 ;;  s               4   44[BANK1 ] float 
  3458 ;;  w               4   28[BANK1 ] float 
  3459 ;;  r               4   24[BANK1 ] float 
  3460 ;; Return value:  Size  Location     Type
  3461 ;;                  4   68[BANK0 ] float 
  3462 ;; Registers used:
  3463 ;;		wreg, status,2, status,0, pclath, cstack
  3464 ;; Tracked objects:
  3465 ;;		On entry : 0/0
  3466 ;;		On exit  : 0/0
  3467 ;;		Unchanged: 0/0
  3468 ;; Data sizes:     COMMON   BANK0   BANK1   BANK2   BANK3   BANK4   BANK5   BANK6   BANK7   BANK8   BANK9  BANK10  BANK1
      +1  BANK12
  3469 ;;      Params:         0       4       0       0       0       0       0       0       0       0       0       0       
      +0       0
  3470 ;;      Locals:         0       0      28       0       0       0       0       0       0       0       0       0       
      +0       0
  3471 ;;      Temps:          0       0       0       0       0       0       0       0       0       0       0       0       
      +0       0
  3472 ;;      Totals:         0       4      28       0       0       0       0       0       0       0       0       0       
      +0       0
  3473 ;;Total ram usage:       32 bytes
  3474 ;; Hardware stack levels used: 1
  3475 ;; Hardware stack levels required when called: 5
  3476 ;; This function calls:
  3477 ;;		___fladd
  3478 ;;		___flmul
  3479 ;; This function is called by:
  3480 ;;		_sinf
  3481 ;; This function uses a non-reentrant model
  3482 ;;
  3483                           
  3484     09F9                     ___sindf:	
  3485                           ;psect for function ___sindf
  3486                           
  3487     09F9                     l3254:	
  3488                           ;incstack = 0
  3489                           ; Regs used in ___sindf: [wreg+status,2+status,0+pclath+cstack]
  3490                           
  3491     09F9  0020               	movlb	0	; select bank0
  3492     09FA  0867               	movf	___sindf@x+3,w
  3493     09FB  00B1               	movwf	___flmul@b+3
  3494     09FC  0866               	movf	___sindf@x+2,w
  3495     09FD  00B0               	movwf	___flmul@b+2
  3496     09FE  0865               	movf	___sindf@x+1,w
  3497     09FF  00AF               	movwf	___flmul@b+1
  3498     0A00  0864               	movf	___sindf@x,w
  3499     0A01  00AE               	movwf	___flmul@b
  3500     0A02  0867               	movf	___sindf@x+3,w
  3501     0A03  00B5               	movwf	___flmul@a+3
  3502     0A04  0866               	movf	___sindf@x+2,w
  3503     0A05  00B4               	movwf	___flmul@a+2
  3504     0A06  0865               	movf	___sindf@x+1,w
  3505     0A07  00B3               	movwf	___flmul@a+1
  3506     0A08  0864               	movf	___sindf@x,w
  3507     0A09  00B2               	movwf	___flmul@a
  3508     0A0A  318D  25C5  3189   	fcall	___flmul
  3509     0A0D  0020               	movlb	0	; select bank0
  3510     0A0E  0831               	movf	?___flmul+3,w
  3511     0A0F  0021               	movlb	1	; select bank1
  3512     0A10  00D3               	movwf	(___sindf@z+3)^(0+128)
  3513     0A11  0020               	movlb	0	; select bank0
  3514     0A12  0830               	movf	?___flmul+2,w
  3515     0A13  0021               	movlb	1	; select bank1
  3516     0A14  00D2               	movwf	(___sindf@z+2)^(0+128)
  3517     0A15  0020               	movlb	0	; select bank0
  3518     0A16  082F               	movf	?___flmul+1,w
  3519     0A17  0021               	movlb	1	; select bank1
  3520     0A18  00D1               	movwf	(___sindf@z+1)^(0+128)
  3521     0A19  0020               	movlb	0	; select bank0
  3522     0A1A  082E               	movf	?___flmul,w
  3523     0A1B  0021               	movlb	1	; select bank1
  3524     0A1C  00D0               	movwf	___sindf@z^(0+128)
  3525     0A1D  0853               	movf	(___sindf@z+3)^(0+128),w
  3526     0A1E  0020               	movlb	0	; select bank0
  3527     0A1F  00B1               	movwf	___flmul@b+3
  3528     0A20  0021               	movlb	1	; select bank1
  3529     0A21  0852               	movf	(___sindf@z+2)^(0+128),w
  3530     0A22  0020               	movlb	0	; select bank0
  3531     0A23  00B0               	movwf	___flmul@b+2
  3532     0A24  0021               	movlb	1	; select bank1
  3533     0A25  0851               	movf	(___sindf@z+1)^(0+128),w
  3534     0A26  0020               	movlb	0	; select bank0
  3535     0A27  00AF               	movwf	___flmul@b+1
  3536     0A28  0021               	movlb	1	; select bank1
  3537     0A29  0850               	movf	___sindf@z^(0+128),w
  3538     0A2A  0020               	movlb	0	; select bank0
  3539     0A2B  00AE               	movwf	___flmul@b
  3540     0A2C  0021               	movlb	1	; select bank1
  3541     0A2D  0853               	movf	(___sindf@z+3)^(0+128),w
  3542     0A2E  0020               	movlb	0	; select bank0
  3543     0A2F  00B5               	movwf	___flmul@a+3
  3544     0A30  0021               	movlb	1	; select bank1
  3545     0A31  0852               	movf	(___sindf@z+2)^(0+128),w
  3546     0A32  0020               	movlb	0	; select bank0
  3547     0A33  00B4               	movwf	___flmul@a+2
  3548     0A34  0021               	movlb	1	; select bank1
  3549     0A35  0851               	movf	(___sindf@z+1)^(0+128),w
  3550     0A36  0020               	movlb	0	; select bank0
  3551     0A37  00B3               	movwf	___flmul@a+1
  3552     0A38  0021               	movlb	1	; select bank1
  3553     0A39  0850               	movf	___sindf@z^(0+128),w
  3554     0A3A  0020               	movlb	0	; select bank0
  3555     0A3B  00B2               	movwf	___flmul@a
  3556     0A3C  318D  25C5  3189   	fcall	___flmul
  3557     0A3F  0020               	movlb	0	; select bank0
  3558     0A40  0831               	movf	?___flmul+3,w
  3559     0A41  0021               	movlb	1	; select bank1
  3560     0A42  00BF               	movwf	(___sindf@w+3)^(0+128)
  3561     0A43  0020               	movlb	0	; select bank0
  3562     0A44  0830               	movf	?___flmul+2,w
  3563     0A45  0021               	movlb	1	; select bank1
  3564     0A46  00BE               	movwf	(___sindf@w+2)^(0+128)
  3565     0A47  0020               	movlb	0	; select bank0
  3566     0A48  082F               	movf	?___flmul+1,w
  3567     0A49  0021               	movlb	1	; select bank1
  3568     0A4A  00BD               	movwf	(___sindf@w+1)^(0+128)
  3569     0A4B  0020               	movlb	0	; select bank0
  3570     0A4C  082E               	movf	?___flmul,w
  3571     0A4D  0021               	movlb	1	; select bank1
  3572     0A4E  00BC               	movwf	___sindf@w^(0+128)
  3573     0A4F  30B9               	movlw	185
  3574     0A50  0020               	movlb	0	; select bank0
  3575     0A51  00CB               	movwf	___fladd@b+3
  3576     0A52  3050               	movlw	80
  3577     0A53  00CA               	movwf	___fladd@b+2
  3578     0A54  3007               	movlw	7
  3579     0A55  00C9               	movwf	___fladd@b+1
  3580     0A56  30CF               	movlw	207
  3581     0A57  00C8               	movwf	___fladd@b
  3582     0A58  3036               	movlw	54
  3583     0A59  00B1               	movwf	___flmul@b+3
  3584     0A5A  3036               	movlw	54
  3585     0A5B  00B0               	movwf	___flmul@b+2
  3586     0A5C  306C               	movlw	108
  3587     0A5D  00AF               	movwf	___flmul@b+1
  3588     0A5E  303C               	movlw	60
  3589     0A5F  00AE               	movwf	___flmul@b
  3590     0A60  0021               	movlb	1	; select bank1
  3591     0A61  0853               	movf	(___sindf@z+3)^(0+128),w
  3592     0A62  0020               	movlb	0	; select bank0
  3593     0A63  00B5               	movwf	___flmul@a+3
  3594     0A64  0021               	movlb	1	; select bank1
  3595     0A65  0852               	movf	(___sindf@z+2)^(0+128),w
  3596     0A66  0020               	movlb	0	; select bank0
  3597     0A67  00B4               	movwf	___flmul@a+2
  3598     0A68  0021               	movlb	1	; select bank1
  3599     0A69  0851               	movf	(___sindf@z+1)^(0+128),w
  3600     0A6A  0020               	movlb	0	; select bank0
  3601     0A6B  00B3               	movwf	___flmul@a+1
  3602     0A6C  0021               	movlb	1	; select bank1
  3603     0A6D  0850               	movf	___sindf@z^(0+128),w
  3604     0A6E  0020               	movlb	0	; select bank0
  3605     0A6F  00B2               	movwf	___flmul@a
  3606     0A70  318D  25C5  3189   	fcall	___flmul
  3607     0A73  0020               	movlb	0	; select bank0
  3608     0A74  0831               	movf	?___flmul+3,w
  3609     0A75  00CF               	movwf	___fladd@a+3
  3610     0A76  0830               	movf	?___flmul+2,w
  3611     0A77  00CE               	movwf	___fladd@a+2
  3612     0A78  082F               	movf	?___flmul+1,w
  3613     0A79  00CD               	movwf	___fladd@a+1
  3614     0A7A  082E               	movf	?___flmul,w
  3615     0A7B  00CC               	movwf	___fladd@a
  3616     0A7C  318B  23BD  3189   	fcall	___fladd
  3617     0A7F  0020               	movlb	0	; select bank0
  3618     0A80  084B               	movf	?___fladd+3,w
  3619     0A81  0021               	movlb	1	; select bank1
  3620     0A82  00BB               	movwf	(___sindf@r+3)^(0+128)
  3621     0A83  0020               	movlb	0	; select bank0
  3622     0A84  084A               	movf	?___fladd+2,w
  3623     0A85  0021               	movlb	1	; select bank1
  3624     0A86  00BA               	movwf	(___sindf@r+2)^(0+128)
  3625     0A87  0020               	movlb	0	; select bank0
  3626     0A88  0849               	movf	?___fladd+1,w
  3627     0A89  0021               	movlb	1	; select bank1
  3628     0A8A  00B9               	movwf	(___sindf@r+1)^(0+128)
  3629     0A8B  0020               	movlb	0	; select bank0
  3630     0A8C  0848               	movf	?___fladd,w
  3631     0A8D  0021               	movlb	1	; select bank1
  3632     0A8E  00B8               	movwf	___sindf@r^(0+128)
  3633     0A8F  0020               	movlb	0	; select bank0
  3634     0A90  0867               	movf	___sindf@x+3,w
  3635     0A91  00B1               	movwf	___flmul@b+3
  3636     0A92  0866               	movf	___sindf@x+2,w
  3637     0A93  00B0               	movwf	___flmul@b+2
  3638     0A94  0865               	movf	___sindf@x+1,w
  3639     0A95  00AF               	movwf	___flmul@b+1
  3640     0A96  0864               	movf	___sindf@x,w
  3641     0A97  00AE               	movwf	___flmul@b
  3642     0A98  0021               	movlb	1	; select bank1
  3643     0A99  0853               	movf	(___sindf@z+3)^(0+128),w
  3644     0A9A  0020               	movlb	0	; select bank0
  3645     0A9B  00B5               	movwf	___flmul@a+3
  3646     0A9C  0021               	movlb	1	; select bank1
  3647     0A9D  0852               	movf	(___sindf@z+2)^(0+128),w
  3648     0A9E  0020               	movlb	0	; select bank0
  3649     0A9F  00B4               	movwf	___flmul@a+2
  3650     0AA0  0021               	movlb	1	; select bank1
  3651     0AA1  0851               	movf	(___sindf@z+1)^(0+128),w
  3652     0AA2  0020               	movlb	0	; select bank0
  3653     0AA3  00B3               	movwf	___flmul@a+1
  3654     0AA4  0021               	movlb	1	; select bank1
  3655     0AA5  0850               	movf	___sindf@z^(0+128),w
  3656     0AA6  0020               	movlb	0	; select bank0
  3657     0AA7  00B2               	movwf	___flmul@a
  3658     0AA8  318D  25C5  3189   	fcall	___flmul
  3659     0AAB  0020               	movlb	0	; select bank0
  3660     0AAC  0831               	movf	?___flmul+3,w
  3661     0AAD  0021               	movlb	1	; select bank1
  3662     0AAE  00CF               	movwf	(___sindf@s+3)^(0+128)
  3663     0AAF  0020               	movlb	0	; select bank0
  3664     0AB0  0830               	movf	?___flmul+2,w
  3665     0AB1  0021               	movlb	1	; select bank1
  3666     0AB2  00CE               	movwf	(___sindf@s+2)^(0+128)
  3667     0AB3  0020               	movlb	0	; select bank0
  3668     0AB4  082F               	movf	?___flmul+1,w
  3669     0AB5  0021               	movlb	1	; select bank1
  3670     0AB6  00CD               	movwf	(___sindf@s+1)^(0+128)
  3671     0AB7  0020               	movlb	0	; select bank0
  3672     0AB8  082E               	movf	?___flmul,w
  3673     0AB9  0021               	movlb	1	; select bank1
  3674     0ABA  00CC               	movwf	___sindf@s^(0+128)
  3675     0ABB  083F               	movf	(___sindf@w+3)^(0+128),w
  3676     0ABC  0020               	movlb	0	; select bank0
  3677     0ABD  00B1               	movwf	___flmul@b+3
  3678     0ABE  0021               	movlb	1	; select bank1
  3679     0ABF  083E               	movf	(___sindf@w+2)^(0+128),w
  3680     0AC0  0020               	movlb	0	; select bank0
  3681     0AC1  00B0               	movwf	___flmul@b+2
  3682     0AC2  0021               	movlb	1	; select bank1
  3683     0AC3  083D               	movf	(___sindf@w+1)^(0+128),w
  3684     0AC4  0020               	movlb	0	; select bank0
  3685     0AC5  00AF               	movwf	___flmul@b+1
  3686     0AC6  0021               	movlb	1	; select bank1
  3687     0AC7  083C               	movf	___sindf@w^(0+128),w
  3688     0AC8  0020               	movlb	0	; select bank0
  3689     0AC9  00AE               	movwf	___flmul@b
  3690     0ACA  0021               	movlb	1	; select bank1
  3691     0ACB  084F               	movf	(___sindf@s+3)^(0+128),w
  3692     0ACC  0020               	movlb	0	; select bank0
  3693     0ACD  00B5               	movwf	___flmul@a+3
  3694     0ACE  0021               	movlb	1	; select bank1
  3695     0ACF  084E               	movf	(___sindf@s+2)^(0+128),w
  3696     0AD0  0020               	movlb	0	; select bank0
  3697     0AD1  00B4               	movwf	___flmul@a+2
  3698     0AD2  0021               	movlb	1	; select bank1
  3699     0AD3  084D               	movf	(___sindf@s+1)^(0+128),w
  3700     0AD4  0020               	movlb	0	; select bank0
  3701     0AD5  00B3               	movwf	___flmul@a+1
  3702     0AD6  0021               	movlb	1	; select bank1
  3703     0AD7  084C               	movf	___sindf@s^(0+128),w
  3704     0AD8  0020               	movlb	0	; select bank0
  3705     0AD9  00B2               	movwf	___flmul@a
  3706     0ADA  318D  25C5  3189   	fcall	___flmul
  3707     0ADD  0020               	movlb	0	; select bank0
  3708     0ADE  0831               	movf	?___flmul+3,w
  3709     0ADF  0021               	movlb	1	; select bank1
  3710     0AE0  00C3               	movwf	(___sindf$693+3)^(0+128)
  3711     0AE1  0020               	movlb	0	; select bank0
  3712     0AE2  0830               	movf	?___flmul+2,w
  3713     0AE3  0021               	movlb	1	; select bank1
  3714     0AE4  00C2               	movwf	(___sindf$693+2)^(0+128)
  3715     0AE5  0020               	movlb	0	; select bank0
  3716     0AE6  082F               	movf	?___flmul+1,w
  3717     0AE7  0021               	movlb	1	; select bank1
  3718     0AE8  00C1               	movwf	(___sindf$693+1)^(0+128)
  3719     0AE9  0020               	movlb	0	; select bank0
  3720     0AEA  082E               	movf	?___flmul,w
  3721     0AEB  0021               	movlb	1	; select bank1
  3722     0AEC  00C0               	movwf	___sindf$693^(0+128)
  3723     0AED  30BE               	movlw	190
  3724     0AEE  0020               	movlb	0	; select bank0
  3725     0AEF  00CB               	movwf	___fladd@b+3
  3726     0AF0  302A               	movlw	42
  3727     0AF1  00CA               	movwf	___fladd@b+2
  3728     0AF2  30AA               	movlw	170
  3729     0AF3  00C9               	movwf	___fladd@b+1
  3730     0AF4  30AB               	movlw	171
  3731     0AF5  00C8               	movwf	___fladd@b
  3732     0AF6  303C               	movlw	60
  3733     0AF7  00B1               	movwf	___flmul@b+3
  3734     0AF8  3008               	movlw	8
  3735     0AF9  00B0               	movwf	___flmul@b+2
  3736     0AFA  3088               	movlw	136
  3737     0AFB  00AF               	movwf	___flmul@b+1
  3738     0AFC  3084               	movlw	132
  3739     0AFD  00AE               	movwf	___flmul@b
  3740     0AFE  0021               	movlb	1	; select bank1
  3741     0AFF  0853               	movf	(___sindf@z+3)^(0+128),w
  3742     0B00  0020               	movlb	0	; select bank0
  3743     0B01  00B5               	movwf	___flmul@a+3
  3744     0B02  0021               	movlb	1	; select bank1
  3745     0B03  0852               	movf	(___sindf@z+2)^(0+128),w
  3746     0B04  0020               	movlb	0	; select bank0
  3747     0B05  00B4               	movwf	___flmul@a+2
  3748     0B06  0021               	movlb	1	; select bank1
  3749     0B07  0851               	movf	(___sindf@z+1)^(0+128),w
  3750     0B08  0020               	movlb	0	; select bank0
  3751     0B09  00B3               	movwf	___flmul@a+1
  3752     0B0A  0021               	movlb	1	; select bank1
  3753     0B0B  0850               	movf	___sindf@z^(0+128),w
  3754     0B0C  0020               	movlb	0	; select bank0
  3755     0B0D  00B2               	movwf	___flmul@a
  3756     0B0E  318D  25C5  3189   	fcall	___flmul
  3757     0B11  0020               	movlb	0	; select bank0
  3758     0B12  0831               	movf	?___flmul+3,w
  3759     0B13  00CF               	movwf	___fladd@a+3
  3760     0B14  0830               	movf	?___flmul+2,w
  3761     0B15  00CE               	movwf	___fladd@a+2
  3762     0B16  082F               	movf	?___flmul+1,w
  3763     0B17  00CD               	movwf	___fladd@a+1
  3764     0B18  082E               	movf	?___flmul,w
  3765     0B19  00CC               	movwf	___fladd@a
  3766     0B1A  318B  23BD  3189   	fcall	___fladd
  3767     0B1D  0020               	movlb	0	; select bank0
  3768     0B1E  084B               	movf	?___fladd+3,w
  3769     0B1F  0021               	movlb	1	; select bank1
  3770     0B20  00C7               	movwf	(___sindf$694+3)^(0+128)
  3771     0B21  0020               	movlb	0	; select bank0
  3772     0B22  084A               	movf	?___fladd+2,w
  3773     0B23  0021               	movlb	1	; select bank1
  3774     0B24  00C6               	movwf	(___sindf$694+2)^(0+128)
  3775     0B25  0020               	movlb	0	; select bank0
  3776     0B26  0849               	movf	?___fladd+1,w
  3777     0B27  0021               	movlb	1	; select bank1
  3778     0B28  00C5               	movwf	(___sindf$694+1)^(0+128)
  3779     0B29  0020               	movlb	0	; select bank0
  3780     0B2A  0848               	movf	?___fladd,w
  3781     0B2B  0021               	movlb	1	; select bank1
  3782     0B2C  00C4               	movwf	___sindf$694^(0+128)
  3783     0B2D  0020               	movlb	0	; select bank0
  3784     0B2E  0867               	movf	___sindf@x+3,w
  3785     0B2F  00CB               	movwf	___fladd@b+3
  3786     0B30  0866               	movf	___sindf@x+2,w
  3787     0B31  00CA               	movwf	___fladd@b+2
  3788     0B32  0865               	movf	___sindf@x+1,w
  3789     0B33  00C9               	movwf	___fladd@b+1
  3790     0B34  0864               	movf	___sindf@x,w
  3791     0B35  00C8               	movwf	___fladd@b
  3792     0B36  0021               	movlb	1	; select bank1
  3793     0B37  084F               	movf	(___sindf@s+3)^(0+128),w
  3794     0B38  0020               	movlb	0	; select bank0
  3795     0B39  00B1               	movwf	___flmul@b+3
  3796     0B3A  0021               	movlb	1	; select bank1
  3797     0B3B  084E               	movf	(___sindf@s+2)^(0+128),w
  3798     0B3C  0020               	movlb	0	; select bank0
  3799     0B3D  00B0               	movwf	___flmul@b+2
  3800     0B3E  0021               	movlb	1	; select bank1
  3801     0B3F  084D               	movf	(___sindf@s+1)^(0+128),w
  3802     0B40  0020               	movlb	0	; select bank0
  3803     0B41  00AF               	movwf	___flmul@b+1
  3804     0B42  0021               	movlb	1	; select bank1
  3805     0B43  084C               	movf	___sindf@s^(0+128),w
  3806     0B44  0020               	movlb	0	; select bank0
  3807     0B45  00AE               	movwf	___flmul@b
  3808     0B46  0021               	movlb	1	; select bank1
  3809     0B47  0847               	movf	(___sindf$694+3)^(0+128),w
  3810     0B48  0020               	movlb	0	; select bank0
  3811     0B49  00B5               	movwf	___flmul@a+3
  3812     0B4A  0021               	movlb	1	; select bank1
  3813     0B4B  0846               	movf	(___sindf$694+2)^(0+128),w
  3814     0B4C  0020               	movlb	0	; select bank0
  3815     0B4D  00B4               	movwf	___flmul@a+2
  3816     0B4E  0021               	movlb	1	; select bank1
  3817     0B4F  0845               	movf	(___sindf$694+1)^(0+128),w
  3818     0B50  0020               	movlb	0	; select bank0
  3819     0B51  00B3               	movwf	___flmul@a+1
  3820     0B52  0021               	movlb	1	; select bank1
  3821     0B53  0844               	movf	___sindf$694^(0+128),w
  3822     0B54  0020               	movlb	0	; select bank0
  3823     0B55  00B2               	movwf	___flmul@a
  3824     0B56  318D  25C5  3189   	fcall	___flmul
  3825     0B59  0020               	movlb	0	; select bank0
  3826     0B5A  0831               	movf	?___flmul+3,w
  3827     0B5B  00CF               	movwf	___fladd@a+3
  3828     0B5C  0830               	movf	?___flmul+2,w
  3829     0B5D  00CE               	movwf	___fladd@a+2
  3830     0B5E  082F               	movf	?___flmul+1,w
  3831     0B5F  00CD               	movwf	___fladd@a+1
  3832     0B60  082E               	movf	?___flmul,w
  3833     0B61  00CC               	movwf	___fladd@a
  3834     0B62  318B  23BD  3189   	fcall	___fladd
  3835     0B65  0020               	movlb	0	; select bank0
  3836     0B66  084B               	movf	?___fladd+3,w
  3837     0B67  0021               	movlb	1	; select bank1
  3838     0B68  00CB               	movwf	(___sindf$695+3)^(0+128)
  3839     0B69  0020               	movlb	0	; select bank0
  3840     0B6A  084A               	movf	?___fladd+2,w
  3841     0B6B  0021               	movlb	1	; select bank1
  3842     0B6C  00CA               	movwf	(___sindf$695+2)^(0+128)
  3843     0B6D  0020               	movlb	0	; select bank0
  3844     0B6E  0849               	movf	?___fladd+1,w
  3845     0B6F  0021               	movlb	1	; select bank1
  3846     0B70  00C9               	movwf	(___sindf$695+1)^(0+128)
  3847     0B71  0020               	movlb	0	; select bank0
  3848     0B72  0848               	movf	?___fladd,w
  3849     0B73  0021               	movlb	1	; select bank1
  3850     0B74  00C8               	movwf	___sindf$695^(0+128)
  3851     0B75  083B               	movf	(___sindf@r+3)^(0+128),w
  3852     0B76  0020               	movlb	0	; select bank0
  3853     0B77  00B1               	movwf	___flmul@b+3
  3854     0B78  0021               	movlb	1	; select bank1
  3855     0B79  083A               	movf	(___sindf@r+2)^(0+128),w
  3856     0B7A  0020               	movlb	0	; select bank0
  3857     0B7B  00B0               	movwf	___flmul@b+2
  3858     0B7C  0021               	movlb	1	; select bank1
  3859     0B7D  0839               	movf	(___sindf@r+1)^(0+128),w
  3860     0B7E  0020               	movlb	0	; select bank0
  3861     0B7F  00AF               	movwf	___flmul@b+1
  3862     0B80  0021               	movlb	1	; select bank1
  3863     0B81  0838               	movf	___sindf@r^(0+128),w
  3864     0B82  0020               	movlb	0	; select bank0
  3865     0B83  00AE               	movwf	___flmul@b
  3866     0B84  0021               	movlb	1	; select bank1
  3867     0B85  0843               	movf	(___sindf$693+3)^(0+128),w
  3868     0B86  0020               	movlb	0	; select bank0
  3869     0B87  00B5               	movwf	___flmul@a+3
  3870     0B88  0021               	movlb	1	; select bank1
  3871     0B89  0842               	movf	(___sindf$693+2)^(0+128),w
  3872     0B8A  0020               	movlb	0	; select bank0
  3873     0B8B  00B4               	movwf	___flmul@a+2
  3874     0B8C  0021               	movlb	1	; select bank1
  3875     0B8D  0841               	movf	(___sindf$693+1)^(0+128),w
  3876     0B8E  0020               	movlb	0	; select bank0
  3877     0B8F  00B3               	movwf	___flmul@a+1
  3878     0B90  0021               	movlb	1	; select bank1
  3879     0B91  0840               	movf	___sindf$693^(0+128),w
  3880     0B92  0020               	movlb	0	; select bank0
  3881     0B93  00B2               	movwf	___flmul@a
  3882     0B94  318D  25C5  3189   	fcall	___flmul
  3883     0B97  0020               	movlb	0	; select bank0
  3884     0B98  0831               	movf	?___flmul+3,w
  3885     0B99  00CB               	movwf	___fladd@b+3
  3886     0B9A  0830               	movf	?___flmul+2,w
  3887     0B9B  00CA               	movwf	___fladd@b+2
  3888     0B9C  082F               	movf	?___flmul+1,w
  3889     0B9D  00C9               	movwf	___fladd@b+1
  3890     0B9E  082E               	movf	?___flmul,w
  3891     0B9F  00C8               	movwf	___fladd@b
  3892     0BA0  0021               	movlb	1	; select bank1
  3893     0BA1  084B               	movf	(___sindf$695+3)^(0+128),w
  3894     0BA2  0020               	movlb	0	; select bank0
  3895     0BA3  00CF               	movwf	___fladd@a+3
  3896     0BA4  0021               	movlb	1	; select bank1
  3897     0BA5  084A               	movf	(___sindf$695+2)^(0+128),w
  3898     0BA6  0020               	movlb	0	; select bank0
  3899     0BA7  00CE               	movwf	___fladd@a+2
  3900     0BA8  0021               	movlb	1	; select bank1
  3901     0BA9  0849               	movf	(___sindf$695+1)^(0+128),w
  3902     0BAA  0020               	movlb	0	; select bank0
  3903     0BAB  00CD               	movwf	___fladd@a+1
  3904     0BAC  0021               	movlb	1	; select bank1
  3905     0BAD  0848               	movf	___sindf$695^(0+128),w
  3906     0BAE  0020               	movlb	0	; select bank0
  3907     0BAF  00CC               	movwf	___fladd@a
  3908     0BB0  318B  23BD  3189   	fcall	___fladd
  3909     0BB3  0020               	movlb	0	; select bank0
  3910     0BB4  084B               	movf	?___fladd+3,w
  3911     0BB5  00E7               	movwf	?___sindf+3
  3912     0BB6  084A               	movf	?___fladd+2,w
  3913     0BB7  00E6               	movwf	?___sindf+2
  3914     0BB8  0849               	movf	?___fladd+1,w
  3915     0BB9  00E5               	movwf	?___sindf+1
  3916     0BBA  0848               	movf	?___fladd,w
  3917     0BBB  00E4               	movwf	?___sindf
  3918     0BBC                     l761:
  3919     0BBC  0008               	return
  3920     0BBD                     __end_of___sindf:
  3921                           
  3922                           	psect	text4
  3923     048B                     __ptext4:	
  3924 ;; *************** function ___rem_pio2f *****************
  3925 ;; Defined at:
  3926 ;;		line 43 in file "C:\Program Files\Microchip\xc8\v2.40\pic\sources\c99\common\__rem_pio2f.c"
  3927 ;; Parameters:    Size  Location     Type
  3928 ;;  x               4   24[BANK1 ] float 
  3929 ;;  y               1   28[BANK1 ] PTR 
  3930 ;;		 -> sinf@y(4), 
  3931 ;; Auto vars:     Size  Location     Type
  3932 ;;  n               4   55[BANK1 ] long 
  3933 ;;  t               4   51[BANK1 ] float 
  3934 ;;  fn              4   47[BANK1 ] float 
  3935 ;;  u               4   39[BANK1 ] struct .
  3936 ;;  ix              4   33[BANK1 ] unsigned long 
  3937 ;;  ty              4   29[BANK1 ] [1]
  3938 ;;  tx              4    0        [1]
  3939 ;;  sign            2   37[BANK1 ] int 
  3940 ;; Return value:  Size  Location     Type
  3941 ;;                  2   24[BANK1 ] int 
  3942 ;; Registers used:
  3943 ;;		wreg, fsr1l, fsr1h, status,2, status,0, pclath, cstack
  3944 ;; Tracked objects:
  3945 ;;		On entry : 0/0
  3946 ;;		On exit  : 0/0
  3947 ;;		Unchanged: 0/0
  3948 ;; Data sizes:     COMMON   BANK0   BANK1   BANK2   BANK3   BANK4   BANK5   BANK6   BANK7   BANK8   BANK9  BANK10  BANK1
      +1  BANK12
  3949 ;;      Params:         0       0       5       0       0       0       0       0       0       0       0       0       
      +0       0
  3950 ;;      Locals:         0       0      30       0       0       0       0       0       0       0       0       0       
      +0       0
  3951 ;;      Temps:          0       4       0       0       0       0       0       0       0       0       0       0       
      +0       0
  3952 ;;      Totals:         0       4      35       0       0       0       0       0       0       0       0       0       
      +0       0
  3953 ;;Total ram usage:       39 bytes
  3954 ;; Hardware stack levels used: 1
  3955 ;; Hardware stack levels required when called: 5
  3956 ;; This function calls:
  3957 ;;		___fladd
  3958 ;;		___flmul
  3959 ;;		___flneg
  3960 ;;		___flsub
  3961 ;;		___fltol
  3962 ;;		___xxtofl
  3963 ;;		_fabsf
  3964 ;; This function is called by:
  3965 ;;		_sinf
  3966 ;; This function uses a non-reentrant model
  3967 ;;
  3968                           
  3969     048B                     ___rem_pio2f:	
  3970                           ;psect for function ___rem_pio2f
  3971                           
  3972     048B                     l3262:	
  3973                           ;incstack = 0
  3974                           ; Regs used in ___rem_pio2f: [wreg+fsr1l+fsr1h+status,2+status,0+pclath+cstack]
  3975                           
  3976     048B  0022               	movlb	2	; select bank2
  3977     048C  084E               	movf	(___rem_pio2f@F532+3)^(0+256),w
  3978     048D  0021               	movlb	1	; select bank1
  3979     048E  00CA               	movwf	(___rem_pio2f@u+3)^(0+128)
  3980     048F  0022               	movlb	2	; select bank2
  3981     0490  084D               	movf	(___rem_pio2f@F532+2)^(0+256),w
  3982     0491  0021               	movlb	1	; select bank1
  3983     0492  00C9               	movwf	(___rem_pio2f@u+2)^(0+128)
  3984     0493  0022               	movlb	2	; select bank2
  3985     0494  084C               	movf	(___rem_pio2f@F532+1)^(0+256),w
  3986     0495  0021               	movlb	1	; select bank1
  3987     0496  00C8               	movwf	(___rem_pio2f@u+1)^(0+128)
  3988     0497  0022               	movlb	2	; select bank2
  3989     0498  084B               	movf	___rem_pio2f@F532^(0+256),w
  3990     0499  0021               	movlb	1	; select bank1
  3991     049A  00C7               	movwf	___rem_pio2f@u^(0+128)
  3992     049B  083B               	movf	(___rem_pio2f@x+3)^(0+128),w
  3993     049C  00CA               	movwf	(___rem_pio2f@u+3)^(0+128)
  3994     049D  083A               	movf	(___rem_pio2f@x+2)^(0+128),w
  3995     049E  00C9               	movwf	(___rem_pio2f@u+2)^(0+128)
  3996     049F  0839               	movf	(___rem_pio2f@x+1)^(0+128),w
  3997     04A0  00C8               	movwf	(___rem_pio2f@u+1)^(0+128)
  3998     04A1  0838               	movf	___rem_pio2f@x^(0+128),w
  3999     04A2  00C7               	movwf	___rem_pio2f@u^(0+128)
  4000     04A3                     l3264:
  4001     04A3  0847               	movf	___rem_pio2f@u^(0+128),w
  4002     04A4  0020               	movlb	0	; select bank0
  4003     04A5  00EC               	movwf	??___rem_pio2f
  4004     04A6  0021               	movlb	1	; select bank1
  4005     04A7  0848               	movf	(___rem_pio2f@u+1)^(0+128),w
  4006     04A8  0020               	movlb	0	; select bank0
  4007     04A9  00ED               	movwf	??___rem_pio2f+1
  4008     04AA  0021               	movlb	1	; select bank1
  4009     04AB  0849               	movf	(___rem_pio2f@u+2)^(0+128),w
  4010     04AC  0020               	movlb	0	; select bank0
  4011     04AD  00EE               	movwf	??___rem_pio2f+2
  4012     04AE  0021               	movlb	1	; select bank1
  4013     04AF  084A               	movf	(___rem_pio2f@u+3)^(0+128),w
  4014     04B0  0020               	movlb	0	; select bank0
  4015     04B1  00EF               	movwf	??___rem_pio2f+3
  4016     04B2  301F               	movlw	31
  4017     04B3                     u4295:
  4018     04B3  36EF               	lsrf	??___rem_pio2f+3,f
  4019     04B4  0CEE               	rrf	??___rem_pio2f+2,f
  4020     04B5  0CED               	rrf	??___rem_pio2f+1,f
  4021     04B6  0CEC               	rrf	??___rem_pio2f,f
  4022     04B7                     u4290:
  4023     04B7  0B89               	decfsz	9,f
  4024     04B8  2CB3               	goto	u4295
  4025     04B9  086D               	movf	??___rem_pio2f+1,w
  4026     04BA  0021               	movlb	1	; select bank1
  4027     04BB  00C6               	movwf	(___rem_pio2f@sign+1)^(0+128)
  4028     04BC  0020               	movlb	0	; select bank0
  4029     04BD  086C               	movf	??___rem_pio2f,w
  4030     04BE  0021               	movlb	1	; select bank1
  4031     04BF  00C5               	movwf	___rem_pio2f@sign^(0+128)
  4032     04C0                     l3266:
  4033     04C0  30FF               	movlw	255
  4034     04C1  0547               	andwf	___rem_pio2f@u^(0+128),w
  4035     04C2  00C1               	movwf	___rem_pio2f@ix^(0+128)
  4036     04C3  30FF               	movlw	255
  4037     04C4  0548               	andwf	(___rem_pio2f@u+1)^(0+128),w
  4038     04C5  00C2               	movwf	(___rem_pio2f@ix+1)^(0+128)
  4039     04C6  30FF               	movlw	255
  4040     04C7  0549               	andwf	(___rem_pio2f@u+2)^(0+128),w
  4041     04C8  00C3               	movwf	(___rem_pio2f@ix+2)^(0+128)
  4042     04C9  307F               	movlw	127
  4043     04CA  054A               	andwf	(___rem_pio2f@u+3)^(0+128),w
  4044     04CB  00C4               	movwf	(___rem_pio2f@ix+3)^(0+128)
  4045     04CC  3080               	movlw	128
  4046     04CD  0243               	subwf	(___rem_pio2f@ix+2)^(0+128),w
  4047     04CE  307F               	movlw	127
  4048     04CF  3B44               	subwfb	(___rem_pio2f@ix+3)^(0+128),w
  4049     04D0  1C03               	btfss	3,0
  4050     04D1  2CD3               	goto	u4301
  4051     04D2  2CD4               	goto	u4300
  4052     04D3                     u4301:
  4053     04D3  2D09               	goto	l3274
  4054     04D4                     u4300:
  4055     04D4                     l3268:
  4056     04D4  0021               	movlb	1	; select bank1
  4057     04D5  083B               	movf	(___rem_pio2f@x+3)^(0+128),w
  4058     04D6  0020               	movlb	0	; select bank0
  4059     04D7  00DF               	movwf	___flsub@a+3
  4060     04D8  0021               	movlb	1	; select bank1
  4061     04D9  083A               	movf	(___rem_pio2f@x+2)^(0+128),w
  4062     04DA  0020               	movlb	0	; select bank0
  4063     04DB  00DE               	movwf	___flsub@a+2
  4064     04DC  0021               	movlb	1	; select bank1
  4065     04DD  0839               	movf	(___rem_pio2f@x+1)^(0+128),w
  4066     04DE  0020               	movlb	0	; select bank0
  4067     04DF  00DD               	movwf	___flsub@a+1
  4068     04E0  0021               	movlb	1	; select bank1
  4069     04E1  0838               	movf	___rem_pio2f@x^(0+128),w
  4070     04E2  0020               	movlb	0	; select bank0
  4071     04E3  00DC               	movwf	___flsub@a
  4072     04E4  0021               	movlb	1	; select bank1
  4073     04E5  083B               	movf	(___rem_pio2f@x+3)^(0+128),w
  4074     04E6  0020               	movlb	0	; select bank0
  4075     04E7  00E3               	movwf	___flsub@b+3
  4076     04E8  0021               	movlb	1	; select bank1
  4077     04E9  083A               	movf	(___rem_pio2f@x+2)^(0+128),w
  4078     04EA  0020               	movlb	0	; select bank0
  4079     04EB  00E2               	movwf	___flsub@b+2
  4080     04EC  0021               	movlb	1	; select bank1
  4081     04ED  0839               	movf	(___rem_pio2f@x+1)^(0+128),w
  4082     04EE  0020               	movlb	0	; select bank0
  4083     04EF  00E1               	movwf	___flsub@b+1
  4084     04F0  0021               	movlb	1	; select bank1
  4085     04F1  0838               	movf	___rem_pio2f@x^(0+128),w
  4086     04F2  0020               	movlb	0	; select bank0
  4087     04F3  00E0               	movwf	___flsub@b
  4088     04F4  3192  22D9  3184   	fcall	___flsub
  4089     04F7  0021               	movlb	1	; select bank1
  4090     04F8  083C               	movf	___rem_pio2f@y^(0+128),w
  4091     04F9  0086               	movwf	6
  4092     04FA  3001               	movlw	1	; select bank2/3
  4093     04FB  0087               	movwf	7
  4094     04FC  0020               	movlb	0	; select bank0
  4095     04FD  085C               	movf	?___flsub,w
  4096     04FE  3FC0               	movwi [0]fsr1
  4097     04FF  085D               	movf	?___flsub+1,w
  4098     0500  3FC1               	movwi [1]fsr1
  4099     0501  085E               	movf	?___flsub+2,w
  4100     0502  3FC2               	movwi [2]fsr1
  4101     0503  085F               	movf	?___flsub+3,w
  4102     0504  3FC3               	movwi [3]fsr1
  4103     0505                     l3270:
  4104     0505  0021               	movlb	1	; select bank1
  4105     0506  01B8               	clrf	?___rem_pio2f^(0+128)
  4106     0507  01B9               	clrf	(?___rem_pio2f+1)^(0+128)
  4107     0508  2FC5               	goto	l747
  4108     0509                     l3274:
  4109     0509  30DB               	movlw	219
  4110     050A  0021               	movlb	1	; select bank1
  4111     050B  0241               	subwf	___rem_pio2f@ix^(0+128),w
  4112     050C  300F               	movlw	15
  4113     050D  3B42               	subwfb	(___rem_pio2f@ix+1)^(0+128),w
  4114     050E  30C9               	movlw	201
  4115     050F  3B43               	subwfb	(___rem_pio2f@ix+2)^(0+128),w
  4116     0510  304D               	movlw	77
  4117     0511  3B44               	subwfb	(___rem_pio2f@ix+3)^(0+128),w
  4118     0512  1803               	btfsc	3,0
  4119     0513  2D15               	goto	u4311
  4120     0514  2D16               	goto	u4310
  4121     0515                     u4311:
  4122     0515  2E71               	goto	l3298
  4123     0516                     u4310:
  4124     0516                     l3276:
  4125     0516  0021               	movlb	1	; select bank1
  4126     0517  083B               	movf	(___rem_pio2f@x+3)^(0+128),w
  4127     0518  0020               	movlb	0	; select bank0
  4128     0519  00A3               	movwf	fabsf@x+3
  4129     051A  0021               	movlb	1	; select bank1
  4130     051B  083A               	movf	(___rem_pio2f@x+2)^(0+128),w
  4131     051C  0020               	movlb	0	; select bank0
  4132     051D  00A2               	movwf	fabsf@x+2
  4133     051E  0021               	movlb	1	; select bank1
  4134     051F  0839               	movf	(___rem_pio2f@x+1)^(0+128),w
  4135     0520  0020               	movlb	0	; select bank0
  4136     0521  00A1               	movwf	fabsf@x+1
  4137     0522  0021               	movlb	1	; select bank1
  4138     0523  0838               	movf	___rem_pio2f@x^(0+128),w
  4139     0524  0020               	movlb	0	; select bank0
  4140     0525  00A0               	movwf	fabsf@x
  4141     0526  3187  27C6  3184   	fcall	_fabsf
  4142     0529  0020               	movlb	0	; select bank0
  4143     052A  0823               	movf	?_fabsf+3,w
  4144     052B  0021               	movlb	1	; select bank1
  4145     052C  00D6               	movwf	(___rem_pio2f@t+3)^(0+128)
  4146     052D  0020               	movlb	0	; select bank0
  4147     052E  0822               	movf	?_fabsf+2,w
  4148     052F  0021               	movlb	1	; select bank1
  4149     0530  00D5               	movwf	(___rem_pio2f@t+2)^(0+128)
  4150     0531  0020               	movlb	0	; select bank0
  4151     0532  0821               	movf	?_fabsf+1,w
  4152     0533  0021               	movlb	1	; select bank1
  4153     0534  00D4               	movwf	(___rem_pio2f@t+1)^(0+128)
  4154     0535  0020               	movlb	0	; select bank0
  4155     0536  0820               	movf	?_fabsf,w
  4156     0537  0021               	movlb	1	; select bank1
  4157     0538  00D3               	movwf	___rem_pio2f@t^(0+128)
  4158     0539                     l3278:
  4159     0539  0856               	movf	(___rem_pio2f@t+3)^(0+128),w
  4160     053A  0020               	movlb	0	; select bank0
  4161     053B  00B5               	movwf	___flmul@a+3
  4162     053C  0021               	movlb	1	; select bank1
  4163     053D  0855               	movf	(___rem_pio2f@t+2)^(0+128),w
  4164     053E  0020               	movlb	0	; select bank0
  4165     053F  00B4               	movwf	___flmul@a+2
  4166     0540  0021               	movlb	1	; select bank1
  4167     0541  0854               	movf	(___rem_pio2f@t+1)^(0+128),w
  4168     0542  0020               	movlb	0	; select bank0
  4169     0543  00B3               	movwf	___flmul@a+1
  4170     0544  0021               	movlb	1	; select bank1
  4171     0545  0853               	movf	___rem_pio2f@t^(0+128),w
  4172     0546  0020               	movlb	0	; select bank0
  4173     0547  00B2               	movwf	___flmul@a
  4174     0548  303F               	movlw	63
  4175     0549  00B1               	movwf	___flmul@b+3
  4176     054A  3022               	movlw	34
  4177     054B  00B0               	movwf	___flmul@b+2
  4178     054C  30F9               	movlw	249
  4179     054D  00AF               	movwf	___flmul@b+1
  4180     054E  3083               	movlw	131
  4181     054F  00AE               	movwf	___flmul@b
  4182     0550  318D  25C5  3184   	fcall	___flmul
  4183     0553  0020               	movlb	0	; select bank0
  4184     0554  0831               	movf	?___flmul+3,w
  4185     0555  00CF               	movwf	___fladd@a+3
  4186     0556  0830               	movf	?___flmul+2,w
  4187     0557  00CE               	movwf	___fladd@a+2
  4188     0558  082F               	movf	?___flmul+1,w
  4189     0559  00CD               	movwf	___fladd@a+1
  4190     055A  082E               	movf	?___flmul,w
  4191     055B  00CC               	movwf	___fladd@a
  4192     055C  303F               	movlw	63
  4193     055D  00CB               	movwf	___fladd@b+3
  4194     055E  3000               	movlw	0
  4195     055F  00CA               	movwf	___fladd@b+2
  4196     0560  3000               	movlw	0
  4197     0561  00C9               	movwf	___fladd@b+1
  4198     0562  3000               	movlw	0
  4199     0563  00C8               	movwf	___fladd@b
  4200     0564  318B  23BD  3184   	fcall	___fladd
  4201     0567  0020               	movlb	0	; select bank0
  4202     0568  084B               	movf	?___fladd+3,w
  4203     0569  00E5               	movwf	___fltol@f1+3
  4204     056A  084A               	movf	?___fladd+2,w
  4205     056B  00E4               	movwf	___fltol@f1+2
  4206     056C  0849               	movf	?___fladd+1,w
  4207     056D  00E3               	movwf	___fltol@f1+1
  4208     056E  0848               	movf	?___fladd,w
  4209     056F  00E2               	movwf	___fltol@f1
  4210     0570  3193  238D  3184   	fcall	___fltol
  4211     0573  0020               	movlb	0	; select bank0
  4212     0574  0865               	movf	?___fltol+3,w
  4213     0575  0021               	movlb	1	; select bank1
  4214     0576  00DA               	movwf	(___rem_pio2f@n+3)^(0+128)
  4215     0577  0020               	movlb	0	; select bank0
  4216     0578  0864               	movf	?___fltol+2,w
  4217     0579  0021               	movlb	1	; select bank1
  4218     057A  00D9               	movwf	(___rem_pio2f@n+2)^(0+128)
  4219     057B  0020               	movlb	0	; select bank0
  4220     057C  0863               	movf	?___fltol+1,w
  4221     057D  0021               	movlb	1	; select bank1
  4222     057E  00D8               	movwf	(___rem_pio2f@n+1)^(0+128)
  4223     057F  0020               	movlb	0	; select bank0
  4224     0580  0862               	movf	?___fltol,w
  4225     0581  0021               	movlb	1	; select bank1
  4226     0582  00D7               	movwf	___rem_pio2f@n^(0+128)
  4227     0583                     l3280:
  4228     0583  085A               	movf	(___rem_pio2f@n+3)^(0+128),w
  4229     0584  0020               	movlb	0	; select bank0
  4230     0585  00A3               	movwf	___xxtofl@val+3
  4231     0586  0021               	movlb	1	; select bank1
  4232     0587  0859               	movf	(___rem_pio2f@n+2)^(0+128),w
  4233     0588  0020               	movlb	0	; select bank0
  4234     0589  00A2               	movwf	___xxtofl@val+2
  4235     058A  0021               	movlb	1	; select bank1
  4236     058B  0858               	movf	(___rem_pio2f@n+1)^(0+128),w
  4237     058C  0020               	movlb	0	; select bank0
  4238     058D  00A1               	movwf	___xxtofl@val+1
  4239     058E  0021               	movlb	1	; select bank1
  4240     058F  0857               	movf	___rem_pio2f@n^(0+128),w
  4241     0590  0020               	movlb	0	; select bank0
  4242     0591  00A0               	movwf	___xxtofl@val
  4243     0592  3001               	movlw	1
  4244     0593  3195  2503  3184   	fcall	___xxtofl
  4245     0596  0020               	movlb	0	; select bank0
  4246     0597  0823               	movf	?___xxtofl+3,w
  4247     0598  0021               	movlb	1	; select bank1
  4248     0599  00D2               	movwf	(___rem_pio2f@fn+3)^(0+128)
  4249     059A  0020               	movlb	0	; select bank0
  4250     059B  0822               	movf	?___xxtofl+2,w
  4251     059C  0021               	movlb	1	; select bank1
  4252     059D  00D1               	movwf	(___rem_pio2f@fn+2)^(0+128)
  4253     059E  0020               	movlb	0	; select bank0
  4254     059F  0821               	movf	?___xxtofl+1,w
  4255     05A0  0021               	movlb	1	; select bank1
  4256     05A1  00D0               	movwf	(___rem_pio2f@fn+1)^(0+128)
  4257     05A2  0020               	movlb	0	; select bank0
  4258     05A3  0820               	movf	?___xxtofl,w
  4259     05A4  0021               	movlb	1	; select bank1
  4260     05A5  00CF               	movwf	___rem_pio2f@fn^(0+128)
  4261     05A6                     l3282:
  4262     05A6  303F               	movlw	63
  4263     05A7  0020               	movlb	0	; select bank0
  4264     05A8  00B1               	movwf	___flmul@b+3
  4265     05A9  30C9               	movlw	201
  4266     05AA  00B0               	movwf	___flmul@b+2
  4267     05AB  300F               	movlw	15
  4268     05AC  00AF               	movwf	___flmul@b+1
  4269     05AD  30DA               	movlw	218
  4270     05AE  00AE               	movwf	___flmul@b
  4271     05AF  0021               	movlb	1	; select bank1
  4272     05B0  0852               	movf	(___rem_pio2f@fn+3)^(0+128),w
  4273     05B1  0020               	movlb	0	; select bank0
  4274     05B2  00B5               	movwf	___flmul@a+3
  4275     05B3  0021               	movlb	1	; select bank1
  4276     05B4  0851               	movf	(___rem_pio2f@fn+2)^(0+128),w
  4277     05B5  0020               	movlb	0	; select bank0
  4278     05B6  00B4               	movwf	___flmul@a+2
  4279     05B7  0021               	movlb	1	; select bank1
  4280     05B8  0850               	movf	(___rem_pio2f@fn+1)^(0+128),w
  4281     05B9  0020               	movlb	0	; select bank0
  4282     05BA  00B3               	movwf	___flmul@a+1
  4283     05BB  0021               	movlb	1	; select bank1
  4284     05BC  084F               	movf	___rem_pio2f@fn^(0+128),w
  4285     05BD  0020               	movlb	0	; select bank0
  4286     05BE  00B2               	movwf	___flmul@a
  4287     05BF  318D  25C5  3184   	fcall	___flmul
  4288     05C2  0020               	movlb	0	; select bank0
  4289     05C3  0831               	movf	?___flmul+3,w
  4290     05C4  00DF               	movwf	___flsub@a+3
  4291     05C5  0830               	movf	?___flmul+2,w
  4292     05C6  00DE               	movwf	___flsub@a+2
  4293     05C7  082F               	movf	?___flmul+1,w
  4294     05C8  00DD               	movwf	___flsub@a+1
  4295     05C9  082E               	movf	?___flmul,w
  4296     05CA  00DC               	movwf	___flsub@a
  4297     05CB  0021               	movlb	1	; select bank1
  4298     05CC  0856               	movf	(___rem_pio2f@t+3)^(0+128),w
  4299     05CD  0020               	movlb	0	; select bank0
  4300     05CE  00E3               	movwf	___flsub@b+3
  4301     05CF  0021               	movlb	1	; select bank1
  4302     05D0  0855               	movf	(___rem_pio2f@t+2)^(0+128),w
  4303     05D1  0020               	movlb	0	; select bank0
  4304     05D2  00E2               	movwf	___flsub@b+2
  4305     05D3  0021               	movlb	1	; select bank1
  4306     05D4  0854               	movf	(___rem_pio2f@t+1)^(0+128),w
  4307     05D5  0020               	movlb	0	; select bank0
  4308     05D6  00E1               	movwf	___flsub@b+1
  4309     05D7  0021               	movlb	1	; select bank1
  4310     05D8  0853               	movf	___rem_pio2f@t^(0+128),w
  4311     05D9  0020               	movlb	0	; select bank0
  4312     05DA  00E0               	movwf	___flsub@b
  4313     05DB  3192  22D9  3184   	fcall	___flsub
  4314     05DE  0020               	movlb	0	; select bank0
  4315     05DF  085F               	movf	?___flsub+3,w
  4316     05E0  0021               	movlb	1	; select bank1
  4317     05E1  00CE               	movwf	(___rem_pio2f$692+3)^(0+128)
  4318     05E2  0020               	movlb	0	; select bank0
  4319     05E3  085E               	movf	?___flsub+2,w
  4320     05E4  0021               	movlb	1	; select bank1
  4321     05E5  00CD               	movwf	(___rem_pio2f$692+2)^(0+128)
  4322     05E6  0020               	movlb	0	; select bank0
  4323     05E7  085D               	movf	?___flsub+1,w
  4324     05E8  0021               	movlb	1	; select bank1
  4325     05E9  00CC               	movwf	(___rem_pio2f$692+1)^(0+128)
  4326     05EA  0020               	movlb	0	; select bank0
  4327     05EB  085C               	movf	?___flsub,w
  4328     05EC  0021               	movlb	1	; select bank1
  4329     05ED  00CB               	movwf	___rem_pio2f$692^(0+128)
  4330     05EE                     l3284:
  4331     05EE  3032               	movlw	50
  4332     05EF  0020               	movlb	0	; select bank0
  4333     05F0  00B1               	movwf	___flmul@b+3
  4334     05F1  3088               	movlw	136
  4335     05F2  00B0               	movwf	___flmul@b+2
  4336     05F3  3085               	movlw	133
  4337     05F4  00AF               	movwf	___flmul@b+1
  4338     05F5  30A3               	movlw	163
  4339     05F6  00AE               	movwf	___flmul@b
  4340     05F7  0021               	movlb	1	; select bank1
  4341     05F8  0852               	movf	(___rem_pio2f@fn+3)^(0+128),w
  4342     05F9  0020               	movlb	0	; select bank0
  4343     05FA  00B5               	movwf	___flmul@a+3
  4344     05FB  0021               	movlb	1	; select bank1
  4345     05FC  0851               	movf	(___rem_pio2f@fn+2)^(0+128),w
  4346     05FD  0020               	movlb	0	; select bank0
  4347     05FE  00B4               	movwf	___flmul@a+2
  4348     05FF  0021               	movlb	1	; select bank1
  4349     0600  0850               	movf	(___rem_pio2f@fn+1)^(0+128),w
  4350     0601  0020               	movlb	0	; select bank0
  4351     0602  00B3               	movwf	___flmul@a+1
  4352     0603  0021               	movlb	1	; select bank1
  4353     0604  084F               	movf	___rem_pio2f@fn^(0+128),w
  4354     0605  0020               	movlb	0	; select bank0
  4355     0606  00B2               	movwf	___flmul@a
  4356     0607  318D  25C5  3184   	fcall	___flmul
  4357     060A  0020               	movlb	0	; select bank0
  4358     060B  0831               	movf	?___flmul+3,w
  4359     060C  00DF               	movwf	___flsub@a+3
  4360     060D  0830               	movf	?___flmul+2,w
  4361     060E  00DE               	movwf	___flsub@a+2
  4362     060F  082F               	movf	?___flmul+1,w
  4363     0610  00DD               	movwf	___flsub@a+1
  4364     0611  082E               	movf	?___flmul,w
  4365     0612  00DC               	movwf	___flsub@a
  4366     0613  0021               	movlb	1	; select bank1
  4367     0614  084E               	movf	(___rem_pio2f$692+3)^(0+128),w
  4368     0615  0020               	movlb	0	; select bank0
  4369     0616  00E3               	movwf	___flsub@b+3
  4370     0617  0021               	movlb	1	; select bank1
  4371     0618  084D               	movf	(___rem_pio2f$692+2)^(0+128),w
  4372     0619  0020               	movlb	0	; select bank0
  4373     061A  00E2               	movwf	___flsub@b+2
  4374     061B  0021               	movlb	1	; select bank1
  4375     061C  084C               	movf	(___rem_pio2f$692+1)^(0+128),w
  4376     061D  0020               	movlb	0	; select bank0
  4377     061E  00E1               	movwf	___flsub@b+1
  4378     061F  0021               	movlb	1	; select bank1
  4379     0620  084B               	movf	___rem_pio2f$692^(0+128),w
  4380     0621  0020               	movlb	0	; select bank0
  4381     0622  00E0               	movwf	___flsub@b
  4382     0623  3192  22D9  3184   	fcall	___flsub
  4383     0626  0021               	movlb	1	; select bank1
  4384     0627  083C               	movf	___rem_pio2f@y^(0+128),w
  4385     0628  0086               	movwf	6
  4386     0629  3001               	movlw	1	; select bank2/3
  4387     062A  0087               	movwf	7
  4388     062B  0020               	movlb	0	; select bank0
  4389     062C  085C               	movf	?___flsub,w
  4390     062D  3FC0               	movwi [0]fsr1
  4391     062E  085D               	movf	?___flsub+1,w
  4392     062F  3FC1               	movwi [1]fsr1
  4393     0630  085E               	movf	?___flsub+2,w
  4394     0631  3FC2               	movwi [2]fsr1
  4395     0632  085F               	movf	?___flsub+3,w
  4396     0633  3FC3               	movwi [3]fsr1
  4397     0634                     l3286:
  4398     0634  0021               	movlb	1	; select bank1
  4399     0635  0845               	movf	___rem_pio2f@sign^(0+128),w
  4400     0636  0446               	iorwf	(___rem_pio2f@sign+1)^(0+128),w
  4401     0637  1903               	btfsc	3,2
  4402     0638  2E3A               	goto	u4321
  4403     0639  2E3B               	goto	u4320
  4404     063A                     u4321:
  4405     063A  2E6C               	goto	l3294
  4406     063B                     u4320:
  4407     063B                     l3288:
  4408     063B  083C               	movf	___rem_pio2f@y^(0+128),w
  4409     063C  0086               	movwf	6
  4410     063D  3001               	movlw	1	; select bank2/3
  4411     063E  0087               	movwf	7
  4412     063F  3F40               	moviw [0]fsr1
  4413     0640  0020               	movlb	0	; select bank0
  4414     0641  00E0               	movwf	___flneg@f1
  4415     0642  3F41               	moviw [1]fsr1
  4416     0643  00E1               	movwf	___flneg@f1+1
  4417     0644  3F42               	moviw [2]fsr1
  4418     0645  00E2               	movwf	___flneg@f1+2
  4419     0646  3F43               	moviw [3]fsr1
  4420     0647  00E3               	movwf	___flneg@f1+3
  4421     0648  3192  2266  3184   	fcall	___flneg
  4422     064B  0021               	movlb	1	; select bank1
  4423     064C  083C               	movf	___rem_pio2f@y^(0+128),w
  4424     064D  0086               	movwf	6
  4425     064E  3001               	movlw	1	; select bank2/3
  4426     064F  0087               	movwf	7
  4427     0650  0020               	movlb	0	; select bank0
  4428     0651  0860               	movf	?___flneg,w
  4429     0652  3FC0               	movwi [0]fsr1
  4430     0653  0861               	movf	?___flneg+1,w
  4431     0654  3FC1               	movwi [1]fsr1
  4432     0655  0862               	movf	?___flneg+2,w
  4433     0656  3FC2               	movwi [2]fsr1
  4434     0657  0863               	movf	?___flneg+3,w
  4435     0658  3FC3               	movwi [3]fsr1
  4436     0659                     l3290:
  4437     0659  0021               	movlb	1	; select bank1
  4438     065A  0957               	comf	___rem_pio2f@n^(0+128),w
  4439     065B  0020               	movlb	0	; select bank0
  4440     065C  00EC               	movwf	??___rem_pio2f
  4441     065D  0021               	movlb	1	; select bank1
  4442     065E  0958               	comf	(___rem_pio2f@n+1)^(0+128),w
  4443     065F  0020               	movlb	0	; select bank0
  4444     0660  00ED               	movwf	??___rem_pio2f+1
  4445     0661  0AEC               	incf	??___rem_pio2f,f
  4446     0662  1903               	skipnz
  4447     0663  0AED               	incf	??___rem_pio2f+1,f
  4448     0664  086C               	movf	??___rem_pio2f,w
  4449     0665  0021               	movlb	1	; select bank1
  4450     0666  00B8               	movwf	?___rem_pio2f^(0+128)
  4451     0667  0020               	movlb	0	; select bank0
  4452     0668  086D               	movf	??___rem_pio2f+1,w
  4453     0669  0021               	movlb	1	; select bank1
  4454     066A  00B9               	movwf	(?___rem_pio2f+1)^(0+128)
  4455     066B  2FC5               	goto	l747
  4456     066C                     l3294:
  4457     066C  0858               	movf	(___rem_pio2f@n+1)^(0+128),w
  4458     066D  00B9               	movwf	(?___rem_pio2f+1)^(0+128)
  4459     066E  0857               	movf	___rem_pio2f@n^(0+128),w
  4460     066F  00B8               	movwf	?___rem_pio2f^(0+128)
  4461     0670  2FC5               	goto	l747
  4462     0671                     l3298:
  4463     0671  0021               	movlb	1	; select bank1
  4464     0672  083B               	movf	(___rem_pio2f@x+3)^(0+128),w
  4465     0673  0020               	movlb	0	; select bank0
  4466     0674  00A3               	movwf	fabsf@x+3
  4467     0675  0021               	movlb	1	; select bank1
  4468     0676  083A               	movf	(___rem_pio2f@x+2)^(0+128),w
  4469     0677  0020               	movlb	0	; select bank0
  4470     0678  00A2               	movwf	fabsf@x+2
  4471     0679  0021               	movlb	1	; select bank1
  4472     067A  0839               	movf	(___rem_pio2f@x+1)^(0+128),w
  4473     067B  0020               	movlb	0	; select bank0
  4474     067C  00A1               	movwf	fabsf@x+1
  4475     067D  0021               	movlb	1	; select bank1
  4476     067E  0838               	movf	___rem_pio2f@x^(0+128),w
  4477     067F  0020               	movlb	0	; select bank0
  4478     0680  00A0               	movwf	fabsf@x
  4479     0681  3187  27C6  3184   	fcall	_fabsf
  4480     0684  0020               	movlb	0	; select bank0
  4481     0685  0823               	movf	?_fabsf+3,w
  4482     0686  0021               	movlb	1	; select bank1
  4483     0687  00D6               	movwf	(___rem_pio2f@t+3)^(0+128)
  4484     0688  0020               	movlb	0	; select bank0
  4485     0689  0822               	movf	?_fabsf+2,w
  4486     068A  0021               	movlb	1	; select bank1
  4487     068B  00D5               	movwf	(___rem_pio2f@t+2)^(0+128)
  4488     068C  0020               	movlb	0	; select bank0
  4489     068D  0821               	movf	?_fabsf+1,w
  4490     068E  0021               	movlb	1	; select bank1
  4491     068F  00D4               	movwf	(___rem_pio2f@t+1)^(0+128)
  4492     0690  0020               	movlb	0	; select bank0
  4493     0691  0820               	movf	?_fabsf,w
  4494     0692  0021               	movlb	1	; select bank1
  4495     0693  00D3               	movwf	___rem_pio2f@t^(0+128)
  4496     0694                     l3300:
  4497     0694  0856               	movf	(___rem_pio2f@t+3)^(0+128),w
  4498     0695  0020               	movlb	0	; select bank0
  4499     0696  00B5               	movwf	___flmul@a+3
  4500     0697  0021               	movlb	1	; select bank1
  4501     0698  0855               	movf	(___rem_pio2f@t+2)^(0+128),w
  4502     0699  0020               	movlb	0	; select bank0
  4503     069A  00B4               	movwf	___flmul@a+2
  4504     069B  0021               	movlb	1	; select bank1
  4505     069C  0854               	movf	(___rem_pio2f@t+1)^(0+128),w
  4506     069D  0020               	movlb	0	; select bank0
  4507     069E  00B3               	movwf	___flmul@a+1
  4508     069F  0021               	movlb	1	; select bank1
  4509     06A0  0853               	movf	___rem_pio2f@t^(0+128),w
  4510     06A1  0020               	movlb	0	; select bank0
  4511     06A2  00B2               	movwf	___flmul@a
  4512     06A3  303F               	movlw	63
  4513     06A4  00B1               	movwf	___flmul@b+3
  4514     06A5  3022               	movlw	34
  4515     06A6  00B0               	movwf	___flmul@b+2
  4516     06A7  30F9               	movlw	249
  4517     06A8  00AF               	movwf	___flmul@b+1
  4518     06A9  3083               	movlw	131
  4519     06AA  00AE               	movwf	___flmul@b
  4520     06AB  318D  25C5  3184   	fcall	___flmul
  4521     06AE  0020               	movlb	0	; select bank0
  4522     06AF  0831               	movf	?___flmul+3,w
  4523     06B0  00CF               	movwf	___fladd@a+3
  4524     06B1  0830               	movf	?___flmul+2,w
  4525     06B2  00CE               	movwf	___fladd@a+2
  4526     06B3  082F               	movf	?___flmul+1,w
  4527     06B4  00CD               	movwf	___fladd@a+1
  4528     06B5  082E               	movf	?___flmul,w
  4529     06B6  00CC               	movwf	___fladd@a
  4530     06B7  303F               	movlw	63
  4531     06B8  00CB               	movwf	___fladd@b+3
  4532     06B9  3000               	movlw	0
  4533     06BA  00CA               	movwf	___fladd@b+2
  4534     06BB  3000               	movlw	0
  4535     06BC  00C9               	movwf	___fladd@b+1
  4536     06BD  3000               	movlw	0
  4537     06BE  00C8               	movwf	___fladd@b
  4538     06BF  318B  23BD  3184   	fcall	___fladd
  4539     06C2  0020               	movlb	0	; select bank0
  4540     06C3  084B               	movf	?___fladd+3,w
  4541     06C4  00E5               	movwf	___fltol@f1+3
  4542     06C5  084A               	movf	?___fladd+2,w
  4543     06C6  00E4               	movwf	___fltol@f1+2
  4544     06C7  0849               	movf	?___fladd+1,w
  4545     06C8  00E3               	movwf	___fltol@f1+1
  4546     06C9  0848               	movf	?___fladd,w
  4547     06CA  00E2               	movwf	___fltol@f1
  4548     06CB  3193  238D  3184   	fcall	___fltol
  4549     06CE  0020               	movlb	0	; select bank0
  4550     06CF  0865               	movf	?___fltol+3,w
  4551     06D0  0021               	movlb	1	; select bank1
  4552     06D1  00DA               	movwf	(___rem_pio2f@n+3)^(0+128)
  4553     06D2  0020               	movlb	0	; select bank0
  4554     06D3  0864               	movf	?___fltol+2,w
  4555     06D4  0021               	movlb	1	; select bank1
  4556     06D5  00D9               	movwf	(___rem_pio2f@n+2)^(0+128)
  4557     06D6  0020               	movlb	0	; select bank0
  4558     06D7  0863               	movf	?___fltol+1,w
  4559     06D8  0021               	movlb	1	; select bank1
  4560     06D9  00D8               	movwf	(___rem_pio2f@n+1)^(0+128)
  4561     06DA  0020               	movlb	0	; select bank0
  4562     06DB  0862               	movf	?___fltol,w
  4563     06DC  0021               	movlb	1	; select bank1
  4564     06DD  00D7               	movwf	___rem_pio2f@n^(0+128)
  4565     06DE                     l3302:
  4566     06DE  085A               	movf	(___rem_pio2f@n+3)^(0+128),w
  4567     06DF  0020               	movlb	0	; select bank0
  4568     06E0  00A3               	movwf	___xxtofl@val+3
  4569     06E1  0021               	movlb	1	; select bank1
  4570     06E2  0859               	movf	(___rem_pio2f@n+2)^(0+128),w
  4571     06E3  0020               	movlb	0	; select bank0
  4572     06E4  00A2               	movwf	___xxtofl@val+2
  4573     06E5  0021               	movlb	1	; select bank1
  4574     06E6  0858               	movf	(___rem_pio2f@n+1)^(0+128),w
  4575     06E7  0020               	movlb	0	; select bank0
  4576     06E8  00A1               	movwf	___xxtofl@val+1
  4577     06E9  0021               	movlb	1	; select bank1
  4578     06EA  0857               	movf	___rem_pio2f@n^(0+128),w
  4579     06EB  0020               	movlb	0	; select bank0
  4580     06EC  00A0               	movwf	___xxtofl@val
  4581     06ED  3001               	movlw	1
  4582     06EE  3195  2503  3184   	fcall	___xxtofl
  4583     06F1  0020               	movlb	0	; select bank0
  4584     06F2  0823               	movf	?___xxtofl+3,w
  4585     06F3  0021               	movlb	1	; select bank1
  4586     06F4  00D2               	movwf	(___rem_pio2f@fn+3)^(0+128)
  4587     06F5  0020               	movlb	0	; select bank0
  4588     06F6  0822               	movf	?___xxtofl+2,w
  4589     06F7  0021               	movlb	1	; select bank1
  4590     06F8  00D1               	movwf	(___rem_pio2f@fn+2)^(0+128)
  4591     06F9  0020               	movlb	0	; select bank0
  4592     06FA  0821               	movf	?___xxtofl+1,w
  4593     06FB  0021               	movlb	1	; select bank1
  4594     06FC  00D0               	movwf	(___rem_pio2f@fn+1)^(0+128)
  4595     06FD  0020               	movlb	0	; select bank0
  4596     06FE  0820               	movf	?___xxtofl,w
  4597     06FF  0021               	movlb	1	; select bank1
  4598     0700  00CF               	movwf	___rem_pio2f@fn^(0+128)
  4599     0701                     l3304:
  4600     0701  303F               	movlw	63
  4601     0702  0020               	movlb	0	; select bank0
  4602     0703  00B1               	movwf	___flmul@b+3
  4603     0704  30C9               	movlw	201
  4604     0705  00B0               	movwf	___flmul@b+2
  4605     0706  300F               	movlw	15
  4606     0707  00AF               	movwf	___flmul@b+1
  4607     0708  30DA               	movlw	218
  4608     0709  00AE               	movwf	___flmul@b
  4609     070A  0021               	movlb	1	; select bank1
  4610     070B  0852               	movf	(___rem_pio2f@fn+3)^(0+128),w
  4611     070C  0020               	movlb	0	; select bank0
  4612     070D  00B5               	movwf	___flmul@a+3
  4613     070E  0021               	movlb	1	; select bank1
  4614     070F  0851               	movf	(___rem_pio2f@fn+2)^(0+128),w
  4615     0710  0020               	movlb	0	; select bank0
  4616     0711  00B4               	movwf	___flmul@a+2
  4617     0712  0021               	movlb	1	; select bank1
  4618     0713  0850               	movf	(___rem_pio2f@fn+1)^(0+128),w
  4619     0714  0020               	movlb	0	; select bank0
  4620     0715  00B3               	movwf	___flmul@a+1
  4621     0716  0021               	movlb	1	; select bank1
  4622     0717  084F               	movf	___rem_pio2f@fn^(0+128),w
  4623     0718  0020               	movlb	0	; select bank0
  4624     0719  00B2               	movwf	___flmul@a
  4625     071A  318D  25C5  3184   	fcall	___flmul
  4626     071D  0020               	movlb	0	; select bank0
  4627     071E  0831               	movf	?___flmul+3,w
  4628     071F  00DF               	movwf	___flsub@a+3
  4629     0720  0830               	movf	?___flmul+2,w
  4630     0721  00DE               	movwf	___flsub@a+2
  4631     0722  082F               	movf	?___flmul+1,w
  4632     0723  00DD               	movwf	___flsub@a+1
  4633     0724  082E               	movf	?___flmul,w
  4634     0725  00DC               	movwf	___flsub@a
  4635     0726  0021               	movlb	1	; select bank1
  4636     0727  0856               	movf	(___rem_pio2f@t+3)^(0+128),w
  4637     0728  0020               	movlb	0	; select bank0
  4638     0729  00E3               	movwf	___flsub@b+3
  4639     072A  0021               	movlb	1	; select bank1
  4640     072B  0855               	movf	(___rem_pio2f@t+2)^(0+128),w
  4641     072C  0020               	movlb	0	; select bank0
  4642     072D  00E2               	movwf	___flsub@b+2
  4643     072E  0021               	movlb	1	; select bank1
  4644     072F  0854               	movf	(___rem_pio2f@t+1)^(0+128),w
  4645     0730  0020               	movlb	0	; select bank0
  4646     0731  00E1               	movwf	___flsub@b+1
  4647     0732  0021               	movlb	1	; select bank1
  4648     0733  0853               	movf	___rem_pio2f@t^(0+128),w
  4649     0734  0020               	movlb	0	; select bank0
  4650     0735  00E0               	movwf	___flsub@b
  4651     0736  3192  22D9  3184   	fcall	___flsub
  4652     0739  0020               	movlb	0	; select bank0
  4653     073A  085F               	movf	?___flsub+3,w
  4654     073B  0021               	movlb	1	; select bank1
  4655     073C  00CE               	movwf	(___rem_pio2f$692+3)^(0+128)
  4656     073D  0020               	movlb	0	; select bank0
  4657     073E  085E               	movf	?___flsub+2,w
  4658     073F  0021               	movlb	1	; select bank1
  4659     0740  00CD               	movwf	(___rem_pio2f$692+2)^(0+128)
  4660     0741  0020               	movlb	0	; select bank0
  4661     0742  085D               	movf	?___flsub+1,w
  4662     0743  0021               	movlb	1	; select bank1
  4663     0744  00CC               	movwf	(___rem_pio2f$692+1)^(0+128)
  4664     0745  0020               	movlb	0	; select bank0
  4665     0746  085C               	movf	?___flsub,w
  4666     0747  0021               	movlb	1	; select bank1
  4667     0748  00CB               	movwf	___rem_pio2f$692^(0+128)
  4668     0749                     l3306:
  4669     0749  3032               	movlw	50
  4670     074A  0020               	movlb	0	; select bank0
  4671     074B  00B1               	movwf	___flmul@b+3
  4672     074C  3088               	movlw	136
  4673     074D  00B0               	movwf	___flmul@b+2
  4674     074E  3085               	movlw	133
  4675     074F  00AF               	movwf	___flmul@b+1
  4676     0750  30A3               	movlw	163
  4677     0751  00AE               	movwf	___flmul@b
  4678     0752  0021               	movlb	1	; select bank1
  4679     0753  0852               	movf	(___rem_pio2f@fn+3)^(0+128),w
  4680     0754  0020               	movlb	0	; select bank0
  4681     0755  00B5               	movwf	___flmul@a+3
  4682     0756  0021               	movlb	1	; select bank1
  4683     0757  0851               	movf	(___rem_pio2f@fn+2)^(0+128),w
  4684     0758  0020               	movlb	0	; select bank0
  4685     0759  00B4               	movwf	___flmul@a+2
  4686     075A  0021               	movlb	1	; select bank1
  4687     075B  0850               	movf	(___rem_pio2f@fn+1)^(0+128),w
  4688     075C  0020               	movlb	0	; select bank0
  4689     075D  00B3               	movwf	___flmul@a+1
  4690     075E  0021               	movlb	1	; select bank1
  4691     075F  084F               	movf	___rem_pio2f@fn^(0+128),w
  4692     0760  0020               	movlb	0	; select bank0
  4693     0761  00B2               	movwf	___flmul@a
  4694     0762  318D  25C5  3184   	fcall	___flmul
  4695     0765  0020               	movlb	0	; select bank0
  4696     0766  0831               	movf	?___flmul+3,w
  4697     0767  00DF               	movwf	___flsub@a+3
  4698     0768  0830               	movf	?___flmul+2,w
  4699     0769  00DE               	movwf	___flsub@a+2
  4700     076A  082F               	movf	?___flmul+1,w
  4701     076B  00DD               	movwf	___flsub@a+1
  4702     076C  082E               	movf	?___flmul,w
  4703     076D  00DC               	movwf	___flsub@a
  4704     076E  0021               	movlb	1	; select bank1
  4705     076F  084E               	movf	(___rem_pio2f$692+3)^(0+128),w
  4706     0770  0020               	movlb	0	; select bank0
  4707     0771  00E3               	movwf	___flsub@b+3
  4708     0772  0021               	movlb	1	; select bank1
  4709     0773  084D               	movf	(___rem_pio2f$692+2)^(0+128),w
  4710     0774  0020               	movlb	0	; select bank0
  4711     0775  00E2               	movwf	___flsub@b+2
  4712     0776  0021               	movlb	1	; select bank1
  4713     0777  084C               	movf	(___rem_pio2f$692+1)^(0+128),w
  4714     0778  0020               	movlb	0	; select bank0
  4715     0779  00E1               	movwf	___flsub@b+1
  4716     077A  0021               	movlb	1	; select bank1
  4717     077B  084B               	movf	___rem_pio2f$692^(0+128),w
  4718     077C  0020               	movlb	0	; select bank0
  4719     077D  00E0               	movwf	___flsub@b
  4720     077E  3192  22D9  3184   	fcall	___flsub
  4721     0781  0020               	movlb	0	; select bank0
  4722     0782  085F               	movf	?___flsub+3,w
  4723     0783  0021               	movlb	1	; select bank1
  4724     0784  00C0               	movwf	(___rem_pio2f@ty+3)^(0+128)
  4725     0785  0020               	movlb	0	; select bank0
  4726     0786  085E               	movf	?___flsub+2,w
  4727     0787  0021               	movlb	1	; select bank1
  4728     0788  00BF               	movwf	(___rem_pio2f@ty+2)^(0+128)
  4729     0789  0020               	movlb	0	; select bank0
  4730     078A  085D               	movf	?___flsub+1,w
  4731     078B  0021               	movlb	1	; select bank1
  4732     078C  00BE               	movwf	(___rem_pio2f@ty+1)^(0+128)
  4733     078D  0020               	movlb	0	; select bank0
  4734     078E  085C               	movf	?___flsub,w
  4735     078F  0021               	movlb	1	; select bank1
  4736     0790  00BD               	movwf	___rem_pio2f@ty^(0+128)
  4737     0791                     l3308:
  4738     0791  0845               	movf	___rem_pio2f@sign^(0+128),w
  4739     0792  0446               	iorwf	(___rem_pio2f@sign+1)^(0+128),w
  4740     0793  1903               	btfsc	3,2
  4741     0794  2F96               	goto	u4331
  4742     0795  2F97               	goto	u4330
  4743     0796                     u4331:
  4744     0796  2FB8               	goto	l3316
  4745     0797                     u4330:
  4746     0797                     l3310:
  4747     0797  0840               	movf	(___rem_pio2f@ty+3)^(0+128),w
  4748     0798  0020               	movlb	0	; select bank0
  4749     0799  00E3               	movwf	___flneg@f1+3
  4750     079A  0021               	movlb	1	; select bank1
  4751     079B  083F               	movf	(___rem_pio2f@ty+2)^(0+128),w
  4752     079C  0020               	movlb	0	; select bank0
  4753     079D  00E2               	movwf	___flneg@f1+2
  4754     079E  0021               	movlb	1	; select bank1
  4755     079F  083E               	movf	(___rem_pio2f@ty+1)^(0+128),w
  4756     07A0  0020               	movlb	0	; select bank0
  4757     07A1  00E1               	movwf	___flneg@f1+1
  4758     07A2  0021               	movlb	1	; select bank1
  4759     07A3  083D               	movf	___rem_pio2f@ty^(0+128),w
  4760     07A4  0020               	movlb	0	; select bank0
  4761     07A5  00E0               	movwf	___flneg@f1
  4762     07A6  3192  2266  3184   	fcall	___flneg
  4763     07A9  0021               	movlb	1	; select bank1
  4764     07AA  083C               	movf	___rem_pio2f@y^(0+128),w
  4765     07AB  0086               	movwf	6
  4766     07AC  3001               	movlw	1	; select bank2/3
  4767     07AD  0087               	movwf	7
  4768     07AE  0020               	movlb	0	; select bank0
  4769     07AF  0860               	movf	?___flneg,w
  4770     07B0  3FC0               	movwi [0]fsr1
  4771     07B1  0861               	movf	?___flneg+1,w
  4772     07B2  3FC1               	movwi [1]fsr1
  4773     07B3  0862               	movf	?___flneg+2,w
  4774     07B4  3FC2               	movwi [2]fsr1
  4775     07B5  0863               	movf	?___flneg+3,w
  4776     07B6  3FC3               	movwi [3]fsr1
  4777     07B7  2E59               	goto	l3290
  4778     07B8                     l3316:
  4779     07B8  083C               	movf	___rem_pio2f@y^(0+128),w
  4780     07B9  0086               	movwf	6
  4781     07BA  3001               	movlw	1	; select bank2/3
  4782     07BB  0087               	movwf	7
  4783     07BC  083D               	movf	___rem_pio2f@ty^(0+128),w
  4784     07BD  3FC0               	movwi [0]fsr1
  4785     07BE  083E               	movf	(___rem_pio2f@ty+1)^(0+128),w
  4786     07BF  3FC1               	movwi [1]fsr1
  4787     07C0  083F               	movf	(___rem_pio2f@ty+2)^(0+128),w
  4788     07C1  3FC2               	movwi [2]fsr1
  4789     07C2  0840               	movf	(___rem_pio2f@ty+3)^(0+128),w
  4790     07C3  3FC3               	movwi [3]fsr1
  4791     07C4  2E6C               	goto	l3294
  4792     07C5                     l747:
  4793     07C5  0008               	return
  4794     07C6                     __end_of___rem_pio2f:
  4795                           
  4796                           	psect	text5
  4797     07C6                     __ptext5:	
  4798 ;; *************** function _fabsf *****************
  4799 ;; Defined at:
  4800 ;;		line 4 in file "C:\Program Files\Microchip\xc8\v2.40\pic\sources\c99\common\fabsf.c"
  4801 ;; Parameters:    Size  Location     Type
  4802 ;;  x               4    0[BANK0 ] float 
  4803 ;; Auto vars:     Size  Location     Type
  4804 ;;  u               4    4[BANK0 ] struct .
  4805 ;; Return value:  Size  Location     Type
  4806 ;;                  4    0[BANK0 ] float 
  4807 ;; Registers used:
  4808 ;;		wreg
  4809 ;; Tracked objects:
  4810 ;;		On entry : 0/0
  4811 ;;		On exit  : 0/0
  4812 ;;		Unchanged: 0/0
  4813 ;; Data sizes:     COMMON   BANK0   BANK1   BANK2   BANK3   BANK4   BANK5   BANK6   BANK7   BANK8   BANK9  BANK10  BANK1
      +1  BANK12
  4814 ;;      Params:         0       4       0       0       0       0       0       0       0       0       0       0       
      +0       0
  4815 ;;      Locals:         0       4       0       0       0       0       0       0       0       0       0       0       
      +0       0
  4816 ;;      Temps:          0       0       0       0       0       0       0       0       0       0       0       0       
      +0       0
  4817 ;;      Totals:         0       8       0       0       0       0       0       0       0       0       0       0       
      +0       0
  4818 ;;Total ram usage:        8 bytes
  4819 ;; Hardware stack levels used: 1
  4820 ;; Hardware stack levels required when called: 3
  4821 ;; This function calls:
  4822 ;;		Nothing
  4823 ;; This function is called by:
  4824 ;;		___rem_pio2f
  4825 ;; This function uses a non-reentrant model
  4826 ;;
  4827                           
  4828     07C6                     _fabsf:	
  4829                           ;psect for function _fabsf
  4830                           
  4831     07C6                     l3244:	
  4832                           ;incstack = 0
  4833                           ; Regs used in _fabsf: [wreg]
  4834                           
  4835     07C6  0022               	movlb	2	; select bank2
  4836     07C7  084A               	movf	(fabsf@F465+3)^(0+256),w
  4837     07C8  0020               	movlb	0	; select bank0
  4838     07C9  00A7               	movwf	fabsf@u+3
  4839     07CA  0022               	movlb	2	; select bank2
  4840     07CB  0849               	movf	(fabsf@F465+2)^(0+256),w
  4841     07CC  0020               	movlb	0	; select bank0
  4842     07CD  00A6               	movwf	fabsf@u+2
  4843     07CE  0022               	movlb	2	; select bank2
  4844     07CF  0848               	movf	(fabsf@F465+1)^(0+256),w
  4845     07D0  0020               	movlb	0	; select bank0
  4846     07D1  00A5               	movwf	fabsf@u+1
  4847     07D2  0022               	movlb	2	; select bank2
  4848     07D3  0847               	movf	fabsf@F465^(0+256),w
  4849     07D4  0020               	movlb	0	; select bank0
  4850     07D5  00A4               	movwf	fabsf@u
  4851     07D6  0823               	movf	fabsf@x+3,w
  4852     07D7  00A7               	movwf	fabsf@u+3
  4853     07D8  0822               	movf	fabsf@x+2,w
  4854     07D9  00A6               	movwf	fabsf@u+2
  4855     07DA  0821               	movf	fabsf@x+1,w
  4856     07DB  00A5               	movwf	fabsf@u+1
  4857     07DC  0820               	movf	fabsf@x,w
  4858     07DD  00A4               	movwf	fabsf@u
  4859     07DE  30FF               	movlw	255
  4860     07DF  05A4               	andwf	fabsf@u,f
  4861     07E0  30FF               	movlw	255
  4862     07E1  05A5               	andwf	fabsf@u+1,f
  4863     07E2  30FF               	movlw	255
  4864     07E3  05A6               	andwf	fabsf@u+2,f
  4865     07E4  307F               	movlw	127
  4866     07E5  05A7               	andwf	fabsf@u+3,f
  4867     07E6  0827               	movf	fabsf@u+3,w
  4868     07E7  00A3               	movwf	?_fabsf+3
  4869     07E8  0826               	movf	fabsf@u+2,w
  4870     07E9  00A2               	movwf	?_fabsf+2
  4871     07EA  0825               	movf	fabsf@u+1,w
  4872     07EB  00A1               	movwf	?_fabsf+1
  4873     07EC  0824               	movf	fabsf@u,w
  4874     07ED  00A0               	movwf	?_fabsf
  4875     07EE                     l766:
  4876     07EE  0008               	return
  4877     07EF                     __end_of_fabsf:
  4878                           
  4879                           	psect	text6
  4880     1503                     __ptext6:	
  4881 ;; *************** function ___xxtofl *****************
  4882 ;; Defined at:
  4883 ;;		line 10 in file "C:\Program Files\Microchip\xc8\v2.40\pic\sources\c99\common\xxtofl.c"
  4884 ;; Parameters:    Size  Location     Type
  4885 ;;  sign            1    wreg     unsigned char 
  4886 ;;  val             4    0[BANK0 ] long 
  4887 ;; Auto vars:     Size  Location     Type
  4888 ;;  sign            1    8[BANK0 ] unsigned char 
  4889 ;;  arg             4   10[BANK0 ] unsigned long 
  4890 ;;  exp             1    9[BANK0 ] unsigned char 
  4891 ;; Return value:  Size  Location     Type
  4892 ;;                  4    0[BANK0 ] unsigned char 
  4893 ;; Registers used:
  4894 ;;		wreg, status,2, status,0
  4895 ;; Tracked objects:
  4896 ;;		On entry : 0/0
  4897 ;;		On exit  : 0/0
  4898 ;;		Unchanged: 0/0
  4899 ;; Data sizes:     COMMON   BANK0   BANK1   BANK2   BANK3   BANK4   BANK5   BANK6   BANK7   BANK8   BANK9  BANK10  BANK1
      +1  BANK12
  4900 ;;      Params:         0       4       0       0       0       0       0       0       0       0       0       0       
      +0       0
  4901 ;;      Locals:         0       6       0       0       0       0       0       0       0       0       0       0       
      +0       0
  4902 ;;      Temps:          0       4       0       0       0       0       0       0       0       0       0       0       
      +0       0
  4903 ;;      Totals:         0      14       0       0       0       0       0       0       0       0       0       0       
      +0       0
  4904 ;;Total ram usage:       14 bytes
  4905 ;; Hardware stack levels used: 1
  4906 ;; Hardware stack levels required when called: 3
  4907 ;; This function calls:
  4908 ;;		Nothing
  4909 ;; This function is called by:
  4910 ;;		_sine_table_gen
  4911 ;;		___rem_pio2f
  4912 ;; This function uses a non-reentrant model
  4913 ;;
  4914                           
  4915     1503                     ___xxtofl:	
  4916                           ;psect for function ___xxtofl
  4917                           
  4918                           
  4919                           ;incstack = 0
  4920                           ; Regs used in ___xxtofl: [wreg+status,2+status,0]
  4921                           ;___xxtofl@sign stored from wreg
  4922     1503  0020               	movlb	0	; select bank0
  4923     1504  00A8               	movwf	___xxtofl@sign
  4924     1505                     l3200:
  4925     1505  0828               	movf	___xxtofl@sign,w
  4926     1506  1903               	btfsc	3,2
  4927     1507  2D09               	goto	u4141
  4928     1508  2D0A               	goto	u4140
  4929     1509                     u4141:
  4930     1509  2D1E               	goto	l3206
  4931     150A                     u4140:
  4932     150A                     l3202:
  4933     150A  1FA3               	btfss	___xxtofl@val+3,7
  4934     150B  2D0D               	goto	u4151
  4935     150C  2D0E               	goto	u4150
  4936     150D                     u4151:
  4937     150D  2D1E               	goto	l3206
  4938     150E                     u4150:
  4939     150E                     l3204:
  4940     150E  0920               	comf	___xxtofl@val,w
  4941     150F  00AA               	movwf	___xxtofl@arg
  4942     1510  0921               	comf	___xxtofl@val+1,w
  4943     1511  00AB               	movwf	___xxtofl@arg+1
  4944     1512  0922               	comf	___xxtofl@val+2,w
  4945     1513  00AC               	movwf	___xxtofl@arg+2
  4946     1514  0923               	comf	___xxtofl@val+3,w
  4947     1515  00AD               	movwf	___xxtofl@arg+3
  4948     1516  0AAA               	incf	___xxtofl@arg,f
  4949     1517  1903               	skipnz
  4950     1518  0AAB               	incf	___xxtofl@arg+1,f
  4951     1519  1903               	skipnz
  4952     151A  0AAC               	incf	___xxtofl@arg+2,f
  4953     151B  1903               	skipnz
  4954     151C  0AAD               	incf	___xxtofl@arg+3,f
  4955     151D  2D26               	goto	l659
  4956     151E                     l3206:
  4957     151E  0823               	movf	___xxtofl@val+3,w
  4958     151F  00AD               	movwf	___xxtofl@arg+3
  4959     1520  0822               	movf	___xxtofl@val+2,w
  4960     1521  00AC               	movwf	___xxtofl@arg+2
  4961     1522  0821               	movf	___xxtofl@val+1,w
  4962     1523  00AB               	movwf	___xxtofl@arg+1
  4963     1524  0820               	movf	___xxtofl@val,w
  4964     1525  00AA               	movwf	___xxtofl@arg
  4965     1526                     l659:
  4966     1526  0823               	movf	___xxtofl@val+3,w
  4967     1527  0422               	iorwf	___xxtofl@val+2,w
  4968     1528  0421               	iorwf	___xxtofl@val+1,w
  4969     1529  0420               	iorwf	___xxtofl@val,w
  4970     152A  1D03               	skipz
  4971     152B  2D2D               	goto	u4161
  4972     152C  2D2E               	goto	u4160
  4973     152D                     u4161:
  4974     152D  2D37               	goto	l3212
  4975     152E                     u4160:
  4976     152E                     l3208:
  4977     152E  3000               	movlw	0
  4978     152F  00A3               	movwf	?___xxtofl+3
  4979     1530  3000               	movlw	0
  4980     1531  00A2               	movwf	?___xxtofl+2
  4981     1532  3000               	movlw	0
  4982     1533  00A1               	movwf	?___xxtofl+1
  4983     1534  3000               	movlw	0
  4984     1535  00A0               	movwf	?___xxtofl
  4985     1536  2DAD               	goto	l661
  4986     1537                     l3212:
  4987     1537  3096               	movlw	150
  4988     1538  00A9               	movwf	___xxtofl@exp
  4989     1539  2D45               	goto	l3216
  4990     153A                     l3214:
  4991     153A  3001               	movlw	1
  4992     153B  00A4               	movwf	??___xxtofl
  4993     153C  0824               	movf	??___xxtofl,w
  4994     153D  07A9               	addwf	___xxtofl@exp,f
  4995     153E  3001               	movlw	1
  4996     153F                     u4175:
  4997     153F  36AD               	lsrf	___xxtofl@arg+3,f
  4998     1540  0CAC               	rrf	___xxtofl@arg+2,f
  4999     1541  0CAB               	rrf	___xxtofl@arg+1,f
  5000     1542  0CAA               	rrf	___xxtofl@arg,f
  5001     1543  0B89               	decfsz	9,f
  5002     1544  2D3F               	goto	u4175
  5003     1545                     l3216:
  5004     1545  30FE               	movlw	254
  5005     1546  052D               	andwf	___xxtofl@arg+3,w
  5006     1547  1D03               	btfss	3,2
  5007     1548  2D4A               	goto	u4181
  5008     1549  2D4B               	goto	u4180
  5009     154A                     u4181:
  5010     154A  2D3A               	goto	l3214
  5011     154B                     u4180:
  5012     154B  2D5F               	goto	l665
  5013     154C                     l3218:
  5014     154C  3001               	movlw	1
  5015     154D  00A4               	movwf	??___xxtofl
  5016     154E  0824               	movf	??___xxtofl,w
  5017     154F  07A9               	addwf	___xxtofl@exp,f
  5018     1550                     l3220:
  5019     1550  3001               	movlw	1
  5020     1551  07AA               	addwf	___xxtofl@arg,f
  5021     1552  3000               	movlw	0
  5022     1553  3DAB               	addwfc	___xxtofl@arg+1,f
  5023     1554  3000               	movlw	0
  5024     1555  3DAC               	addwfc	___xxtofl@arg+2,f
  5025     1556  3000               	movlw	0
  5026     1557  3DAD               	addwfc	___xxtofl@arg+3,f
  5027     1558                     l3222:
  5028     1558  3001               	movlw	1
  5029     1559                     u4195:
  5030     1559  36AD               	lsrf	___xxtofl@arg+3,f
  5031     155A  0CAC               	rrf	___xxtofl@arg+2,f
  5032     155B  0CAB               	rrf	___xxtofl@arg+1,f
  5033     155C  0CAA               	rrf	___xxtofl@arg,f
  5034     155D  0B89               	decfsz	9,f
  5035     155E  2D59               	goto	u4195
  5036     155F                     l665:
  5037     155F  30FF               	movlw	255
  5038     1560  052D               	andwf	___xxtofl@arg+3,w
  5039     1561  1D03               	btfss	3,2
  5040     1562  2D64               	goto	u4201
  5041     1563  2D65               	goto	u4200
  5042     1564                     u4201:
  5043     1564  2D4C               	goto	l3218
  5044     1565                     u4200:
  5045     1565  2D6F               	goto	l3226
  5046     1566                     l3224:
  5047     1566  3001               	movlw	1
  5048     1567  02A9               	subwf	___xxtofl@exp,f
  5049     1568  3001               	movlw	1
  5050     1569                     u4215:
  5051     1569  35AA               	lslf	___xxtofl@arg,f
  5052     156A  0DAB               	rlf	___xxtofl@arg+1,f
  5053     156B  0DAC               	rlf	___xxtofl@arg+2,f
  5054     156C  0DAD               	rlf	___xxtofl@arg+3,f
  5055     156D  0B89               	decfsz	9,f
  5056     156E  2D69               	goto	u4215
  5057     156F                     l3226:
  5058     156F  1BAC               	btfsc	___xxtofl@arg+2,7
  5059     1570  2D72               	goto	u4221
  5060     1571  2D73               	goto	u4220
  5061     1572                     u4221:
  5062     1572  2D79               	goto	l672
  5063     1573                     u4220:
  5064     1573                     l3228:
  5065     1573  3002               	movlw	2
  5066     1574  0229               	subwf	___xxtofl@exp,w
  5067     1575  1803               	skipnc
  5068     1576  2D78               	goto	u4231
  5069     1577  2D79               	goto	u4230
  5070     1578                     u4231:
  5071     1578  2D66               	goto	l3224
  5072     1579                     u4230:
  5073     1579                     l672:
  5074     1579  1829               	btfsc	___xxtofl@exp,0
  5075     157A  2D7C               	goto	u4241
  5076     157B  2D7D               	goto	u4240
  5077     157C                     u4241:
  5078     157C  2D85               	goto	l673
  5079     157D                     u4240:
  5080     157D                     l3230:
  5081     157D  30FF               	movlw	255
  5082     157E  05AA               	andwf	___xxtofl@arg,f
  5083     157F  30FF               	movlw	255
  5084     1580  05AB               	andwf	___xxtofl@arg+1,f
  5085     1581  307F               	movlw	127
  5086     1582  05AC               	andwf	___xxtofl@arg+2,f
  5087     1583  30FF               	movlw	255
  5088     1584  05AD               	andwf	___xxtofl@arg+3,f
  5089     1585                     l673:
  5090     1585  1003               	clrc
  5091     1586  0CA9               	rrf	___xxtofl@exp,f
  5092     1587                     l3232:
  5093     1587  0829               	movf	___xxtofl@exp,w
  5094     1588  00A4               	movwf	??___xxtofl
  5095     1589  01A5               	clrf	??___xxtofl+1
  5096     158A  01A6               	clrf	??___xxtofl+2
  5097     158B  01A7               	clrf	??___xxtofl+3
  5098     158C  3018               	movlw	24
  5099     158D                     u4255:
  5100     158D  35A4               	lslf	??___xxtofl,f
  5101     158E  0DA5               	rlf	??___xxtofl+1,f
  5102     158F  0DA6               	rlf	??___xxtofl+2,f
  5103     1590  0DA7               	rlf	??___xxtofl+3,f
  5104     1591                     u4250:
  5105     1591  0B89               	decfsz	9,f
  5106     1592  2D8D               	goto	u4255
  5107     1593  0824               	movf	??___xxtofl,w
  5108     1594  04AA               	iorwf	___xxtofl@arg,f
  5109     1595  0825               	movf	??___xxtofl+1,w
  5110     1596  04AB               	iorwf	___xxtofl@arg+1,f
  5111     1597  0826               	movf	??___xxtofl+2,w
  5112     1598  04AC               	iorwf	___xxtofl@arg+2,f
  5113     1599  0827               	movf	??___xxtofl+3,w
  5114     159A  04AD               	iorwf	___xxtofl@arg+3,f
  5115     159B                     l3234:
  5116     159B  0828               	movf	___xxtofl@sign,w
  5117     159C  1903               	btfsc	3,2
  5118     159D  2D9F               	goto	u4261
  5119     159E  2DA0               	goto	u4260
  5120     159F                     u4261:
  5121     159F  2DA5               	goto	l3240
  5122     15A0                     u4260:
  5123     15A0                     l3236:
  5124     15A0  1FA3               	btfss	___xxtofl@val+3,7
  5125     15A1  2DA3               	goto	u4271
  5126     15A2  2DA4               	goto	u4270
  5127     15A3                     u4271:
  5128     15A3  2DA5               	goto	l3240
  5129     15A4                     u4270:
  5130     15A4                     l3238:
  5131     15A4  17AD               	bsf	___xxtofl@arg+3,7
  5132     15A5                     l3240:
  5133     15A5  082D               	movf	___xxtofl@arg+3,w
  5134     15A6  00A3               	movwf	?___xxtofl+3
  5135     15A7  082C               	movf	___xxtofl@arg+2,w
  5136     15A8  00A2               	movwf	?___xxtofl+2
  5137     15A9  082B               	movf	___xxtofl@arg+1,w
  5138     15AA  00A1               	movwf	?___xxtofl+1
  5139     15AB  082A               	movf	___xxtofl@arg,w
  5140     15AC  00A0               	movwf	?___xxtofl
  5141     15AD                     l661:
  5142     15AD  0008               	return
  5143     15AE                     __end_of___xxtofl:
  5144                           
  5145                           	psect	text7
  5146     138D                     __ptext7:	
  5147 ;; *************** function ___fltol *****************
  5148 ;; Defined at:
  5149 ;;		line 43 in file "C:\Program Files\Microchip\xc8\v2.40\pic\sources\c99\common\fltol.c"
  5150 ;; Parameters:    Size  Location     Type
  5151 ;;  f1              4   66[BANK0 ] unsigned char 
  5152 ;; Auto vars:     Size  Location     Type
  5153 ;;  exp1            1   75[BANK0 ] unsigned char 
  5154 ;;  sign1           1   74[BANK0 ] unsigned char 
  5155 ;; Return value:  Size  Location     Type
  5156 ;;                  4   66[BANK0 ] long 
  5157 ;; Registers used:
  5158 ;;		wreg, status,2, status,0
  5159 ;; Tracked objects:
  5160 ;;		On entry : 0/0
  5161 ;;		On exit  : 0/0
  5162 ;;		Unchanged: 0/0
  5163 ;; Data sizes:     COMMON   BANK0   BANK1   BANK2   BANK3   BANK4   BANK5   BANK6   BANK7   BANK8   BANK9  BANK10  BANK1
      +1  BANK12
  5164 ;;      Params:         0       4       0       0       0       0       0       0       0       0       0       0       
      +0       0
  5165 ;;      Locals:         0       2       0       0       0       0       0       0       0       0       0       0       
      +0       0
  5166 ;;      Temps:          0       4       0       0       0       0       0       0       0       0       0       0       
      +0       0
  5167 ;;      Totals:         0      10       0       0       0       0       0       0       0       0       0       0       
      +0       0
  5168 ;;Total ram usage:       10 bytes
  5169 ;; Hardware stack levels used: 1
  5170 ;; Hardware stack levels required when called: 3
  5171 ;; This function calls:
  5172 ;;		Nothing
  5173 ;; This function is called by:
  5174 ;;		_sine_table_gen
  5175 ;;		___rem_pio2f
  5176 ;; This function uses a non-reentrant model
  5177 ;;
  5178                           
  5179     138D                     ___fltol:	
  5180                           ;psect for function ___fltol
  5181                           
  5182     138D                     l3018:	
  5183                           ;incstack = 0
  5184                           ; Regs used in ___fltol: [wreg+status,2+status,0]
  5185                           
  5186     138D  1003               	clrc
  5187     138E  0020               	movlb	0	; select bank0
  5188     138F  0D64               	rlf	___fltol@f1+2,w
  5189     1390  0D65               	rlf	___fltol@f1+3,w
  5190     1391  00EB               	movwf	___fltol@exp1
  5191     1392  086B               	movf	___fltol@exp1,w
  5192     1393  1D03               	btfss	3,2
  5193     1394  2B96               	goto	u3781
  5194     1395  2B97               	goto	u3780
  5195     1396                     u3781:
  5196     1396  2BA0               	goto	l3024
  5197     1397                     u3780:
  5198     1397                     l3020:
  5199     1397  3000               	movlw	0
  5200     1398  00E5               	movwf	?___fltol+3
  5201     1399  3000               	movlw	0
  5202     139A  00E4               	movwf	?___fltol+2
  5203     139B  3000               	movlw	0
  5204     139C  00E3               	movwf	?___fltol+1
  5205     139D  3000               	movlw	0
  5206     139E  00E2               	movwf	?___fltol
  5207     139F  2BFD               	goto	l412
  5208     13A0                     l3024:
  5209     13A0  0862               	movf	___fltol@f1,w
  5210     13A1  00E6               	movwf	??___fltol
  5211     13A2  0863               	movf	___fltol@f1+1,w
  5212     13A3  00E7               	movwf	??___fltol+1
  5213     13A4  0864               	movf	___fltol@f1+2,w
  5214     13A5  00E8               	movwf	??___fltol+2
  5215     13A6  0865               	movf	___fltol@f1+3,w
  5216     13A7  00E9               	movwf	??___fltol+3
  5217     13A8  301F               	movlw	31
  5218     13A9                     u3795:
  5219     13A9  36E9               	lsrf	??___fltol+3,f
  5220     13AA  0CE8               	rrf	??___fltol+2,f
  5221     13AB  0CE7               	rrf	??___fltol+1,f
  5222     13AC  0CE6               	rrf	??___fltol,f
  5223     13AD                     u3790:
  5224     13AD  0B89               	decfsz	9,f
  5225     13AE  2BA9               	goto	u3795
  5226     13AF  0866               	movf	??___fltol,w
  5227     13B0  00EA               	movwf	___fltol@sign1
  5228     13B1                     l3026:
  5229     13B1  17E4               	bsf	___fltol@f1+2,7
  5230     13B2                     l3028:
  5231     13B2  30FF               	movlw	255
  5232     13B3  05E2               	andwf	___fltol@f1,f
  5233     13B4  30FF               	movlw	255
  5234     13B5  05E3               	andwf	___fltol@f1+1,f
  5235     13B6  30FF               	movlw	255
  5236     13B7  05E4               	andwf	___fltol@f1+2,f
  5237     13B8  3000               	movlw	0
  5238     13B9  05E5               	andwf	___fltol@f1+3,f
  5239     13BA                     l3030:
  5240     13BA  3096               	movlw	150
  5241     13BB  02EB               	subwf	___fltol@exp1,f
  5242     13BC                     l3032:
  5243     13BC  1FEB               	btfss	___fltol@exp1,7
  5244     13BD  2BBF               	goto	u3801
  5245     13BE  2BC0               	goto	u3800
  5246     13BF                     u3801:
  5247     13BF  2BD8               	goto	l3042
  5248     13C0                     u3800:
  5249     13C0                     l3034:
  5250     13C0  086B               	movf	___fltol@exp1,w
  5251     13C1  3A80               	xorlw	128
  5252     13C2  3E97               	addlw	151
  5253     13C3  1803               	skipnc
  5254     13C4  2BC6               	goto	u3811
  5255     13C5  2BC7               	goto	u3810
  5256     13C6                     u3811:
  5257     13C6  2BC8               	goto	l3040
  5258     13C7                     u3810:
  5259     13C7  2B97               	goto	l3020
  5260     13C8                     l3040:
  5261     13C8  3001               	movlw	1
  5262     13C9                     u3825:
  5263     13C9  36E5               	lsrf	___fltol@f1+3,f
  5264     13CA  0CE4               	rrf	___fltol@f1+2,f
  5265     13CB  0CE3               	rrf	___fltol@f1+1,f
  5266     13CC  0CE2               	rrf	___fltol@f1,f
  5267     13CD  0B89               	decfsz	9,f
  5268     13CE  2BC9               	goto	u3825
  5269     13CF  3001               	movlw	1
  5270     13D0  00E6               	movwf	??___fltol
  5271     13D1  0866               	movf	??___fltol,w
  5272     13D2  07EB               	addwf	___fltol@exp1,f
  5273     13D3  1D03               	btfss	3,2
  5274     13D4  2BD6               	goto	u3831
  5275     13D5  2BD7               	goto	u3830
  5276     13D6                     u3831:
  5277     13D6  2BC8               	goto	l3040
  5278     13D7                     u3830:
  5279     13D7  2BED               	goto	l3050
  5280     13D8                     l3042:
  5281     13D8  3020               	movlw	32
  5282     13D9  026B               	subwf	___fltol@exp1,w
  5283     13DA  1C03               	skipc
  5284     13DB  2BDD               	goto	u3841
  5285     13DC  2BDE               	goto	u3840
  5286     13DD                     u3841:
  5287     13DD  2BE8               	goto	l419
  5288     13DE                     u3840:
  5289     13DE  2B97               	goto	l3020
  5290     13DF                     l3048:
  5291     13DF  3001               	movlw	1
  5292     13E0                     u3855:
  5293     13E0  35E2               	lslf	___fltol@f1,f
  5294     13E1  0DE3               	rlf	___fltol@f1+1,f
  5295     13E2  0DE4               	rlf	___fltol@f1+2,f
  5296     13E3  0DE5               	rlf	___fltol@f1+3,f
  5297     13E4  0B89               	decfsz	9,f
  5298     13E5  2BE0               	goto	u3855
  5299     13E6  3001               	movlw	1
  5300     13E7  02EB               	subwf	___fltol@exp1,f
  5301     13E8                     l419:
  5302     13E8  086B               	movf	___fltol@exp1,w
  5303     13E9  1D03               	btfss	3,2
  5304     13EA  2BEC               	goto	u3861
  5305     13EB  2BED               	goto	u3860
  5306     13EC                     u3861:
  5307     13EC  2BDF               	goto	l3048
  5308     13ED                     u3860:
  5309     13ED                     l3050:
  5310     13ED  086A               	movf	___fltol@sign1,w
  5311     13EE  1903               	btfsc	3,2
  5312     13EF  2BF1               	goto	u3871
  5313     13F0  2BF2               	goto	u3870
  5314     13F1                     u3871:
  5315     13F1  2BFD               	goto	l422
  5316     13F2                     u3870:
  5317     13F2                     l3052:
  5318     13F2  09E2               	comf	___fltol@f1,f
  5319     13F3  09E3               	comf	___fltol@f1+1,f
  5320     13F4  09E4               	comf	___fltol@f1+2,f
  5321     13F5  09E5               	comf	___fltol@f1+3,f
  5322     13F6  0AE2               	incf	___fltol@f1,f
  5323     13F7  1903               	skipnz
  5324     13F8  0AE3               	incf	___fltol@f1+1,f
  5325     13F9  1903               	skipnz
  5326     13FA  0AE4               	incf	___fltol@f1+2,f
  5327     13FB  1903               	skipnz
  5328     13FC  0AE5               	incf	___fltol@f1+3,f
  5329     13FD                     l422:
  5330     13FD                     l412:
  5331     13FD  0008               	return
  5332     13FE                     __end_of___fltol:
  5333                           
  5334                           	psect	text8
  5335     12D9                     __ptext8:	
  5336 ;; *************** function ___flsub *****************
  5337 ;; Defined at:
  5338 ;;		line 242 in file "C:\Program Files\Microchip\xc8\v2.40\pic\sources\c99\common\sprcadd.c"
  5339 ;; Parameters:    Size  Location     Type
  5340 ;;  a               4   60[BANK0 ] long 
  5341 ;;  b               4   64[BANK0 ] long 
  5342 ;; Auto vars:     Size  Location     Type
  5343 ;;		None
  5344 ;; Return value:  Size  Location     Type
  5345 ;;                  4   60[BANK0 ] long 
  5346 ;; Registers used:
  5347 ;;		wreg, status,2, status,0, pclath, cstack
  5348 ;; Tracked objects:
  5349 ;;		On entry : 0/0
  5350 ;;		On exit  : 0/0
  5351 ;;		Unchanged: 0/0
  5352 ;; Data sizes:     COMMON   BANK0   BANK1   BANK2   BANK3   BANK4   BANK5   BANK6   BANK7   BANK8   BANK9  BANK10  BANK1
      +1  BANK12
  5353 ;;      Params:         0       8       0       0       0       0       0       0       0       0       0       0       
      +0       0
  5354 ;;      Locals:         0       0       0       0       0       0       0       0       0       0       0       0       
      +0       0
  5355 ;;      Temps:          0       0       0       0       0       0       0       0       0       0       0       0       
      +0       0
  5356 ;;      Totals:         0       8       0       0       0       0       0       0       0       0       0       0       
      +0       0
  5357 ;;Total ram usage:        8 bytes
  5358 ;; Hardware stack levels used: 1
  5359 ;; Hardware stack levels required when called: 4
  5360 ;; This function calls:
  5361 ;;		___fladd
  5362 ;; This function is called by:
  5363 ;;		_sinf
  5364 ;;		___rem_pio2f
  5365 ;; This function uses a non-reentrant model
  5366 ;;
  5367                           
  5368     12D9                     ___flsub:	
  5369                           ;psect for function ___flsub
  5370                           
  5371     12D9                     l3054:	
  5372                           ;incstack = 0
  5373                           ; Regs used in ___flsub: [wreg+status,2+status,0+pclath+cstack]
  5374                           
  5375     12D9  3080               	movlw	128
  5376     12DA  0020               	movlb	0	; select bank0
  5377     12DB  06DF               	xorwf	___flsub@a+3,f
  5378     12DC                     l3056:
  5379     12DC  0863               	movf	___flsub@b+3,w
  5380     12DD  00CB               	movwf	___fladd@b+3
  5381     12DE  0862               	movf	___flsub@b+2,w
  5382     12DF  00CA               	movwf	___fladd@b+2
  5383     12E0  0861               	movf	___flsub@b+1,w
  5384     12E1  00C9               	movwf	___fladd@b+1
  5385     12E2  0860               	movf	___flsub@b,w
  5386     12E3  00C8               	movwf	___fladd@b
  5387     12E4  085F               	movf	___flsub@a+3,w
  5388     12E5  00CF               	movwf	___fladd@a+3
  5389     12E6  085E               	movf	___flsub@a+2,w
  5390     12E7  00CE               	movwf	___fladd@a+2
  5391     12E8  085D               	movf	___flsub@a+1,w
  5392     12E9  00CD               	movwf	___fladd@a+1
  5393     12EA  085C               	movf	___flsub@a,w
  5394     12EB  00CC               	movwf	___fladd@a
  5395     12EC  318B  23BD  3192   	fcall	___fladd
  5396     12EF  0020               	movlb	0	; select bank0
  5397     12F0  084B               	movf	?___fladd+3,w
  5398     12F1  00DF               	movwf	?___flsub+3
  5399     12F2  084A               	movf	?___fladd+2,w
  5400     12F3  00DE               	movwf	?___flsub+2
  5401     12F4  0849               	movf	?___fladd+1,w
  5402     12F5  00DD               	movwf	?___flsub+1
  5403     12F6  0848               	movf	?___fladd,w
  5404     12F7  00DC               	movwf	?___flsub
  5405     12F8                     l565:
  5406     12F8  0008               	return
  5407     12F9                     __end_of___flsub:
  5408                           
  5409                           	psect	text9
  5410     1266                     __ptext9:	
  5411 ;; *************** function ___flneg *****************
  5412 ;; Defined at:
  5413 ;;		line 15 in file "C:\Program Files\Microchip\xc8\v2.40\pic\sources\c99\common\flneg.c"
  5414 ;; Parameters:    Size  Location     Type
  5415 ;;  f1              4   64[BANK0 ] long 
  5416 ;; Auto vars:     Size  Location     Type
  5417 ;;		None
  5418 ;; Return value:  Size  Location     Type
  5419 ;;                  4   64[BANK0 ] long 
  5420 ;; Registers used:
  5421 ;;		wreg
  5422 ;; Tracked objects:
  5423 ;;		On entry : 0/0
  5424 ;;		On exit  : 0/0
  5425 ;;		Unchanged: 0/0
  5426 ;; Data sizes:     COMMON   BANK0   BANK1   BANK2   BANK3   BANK4   BANK5   BANK6   BANK7   BANK8   BANK9  BANK10  BANK1
      +1  BANK12
  5427 ;;      Params:         0       4       0       0       0       0       0       0       0       0       0       0       
      +0       0
  5428 ;;      Locals:         0       0       0       0       0       0       0       0       0       0       0       0       
      +0       0
  5429 ;;      Temps:          0       0       0       0       0       0       0       0       0       0       0       0       
      +0       0
  5430 ;;      Totals:         0       4       0       0       0       0       0       0       0       0       0       0       
      +0       0
  5431 ;;Total ram usage:        4 bytes
  5432 ;; Hardware stack levels used: 1
  5433 ;; Hardware stack levels required when called: 3
  5434 ;; This function calls:
  5435 ;;		Nothing
  5436 ;; This function is called by:
  5437 ;;		_sinf
  5438 ;;		___rem_pio2f
  5439 ;; This function uses a non-reentrant model
  5440 ;;
  5441                           
  5442     1266                     ___flneg:	
  5443                           ;psect for function ___flneg
  5444                           
  5445     1266                     l3010:	
  5446                           ;incstack = 0
  5447                           ; Regs used in ___flneg: [wreg]
  5448                           
  5449     1266  0020               	movlb	0	; select bank0
  5450     1267  0863               	movf	___flneg@f1+3,w
  5451     1268  0462               	iorwf	___flneg@f1+2,w
  5452     1269  0461               	iorwf	___flneg@f1+1,w
  5453     126A  0460               	iorwf	___flneg@f1,w
  5454     126B  1903               	skipnz
  5455     126C  2A6E               	goto	u3771
  5456     126D  2A6F               	goto	u3770
  5457     126E                     u3771:
  5458     126E  2A71               	goto	l3014
  5459     126F                     u3770:
  5460     126F                     l3012:
  5461     126F  3080               	movlw	128
  5462     1270  06E3               	xorwf	___flneg@f1+3,f
  5463     1271                     l3014:
  5464     1271                     l408:
  5465     1271  0008               	return
  5466     1272                     __end_of___flneg:
  5467                           
  5468                           	psect	text10
  5469     1668                     __ptext10:	
  5470 ;; *************** function ___cosdf *****************
  5471 ;; Defined at:
  5472 ;;		line 26 in file "C:\Program Files\Microchip\xc8\v2.40\pic\sources\c99\common\__cosdf.c"
  5473 ;; Parameters:    Size  Location     Type
  5474 ;;  x               4   60[BANK0 ] long 
  5475 ;; Auto vars:     Size  Location     Type
  5476 ;;  z               4   20[BANK1 ] long 
  5477 ;;  w               4   16[BANK1 ] long 
  5478 ;;  r               4    0[BANK1 ] long 
  5479 ;; Return value:  Size  Location     Type
  5480 ;;                  4   60[BANK0 ] float 
  5481 ;; Registers used:
  5482 ;;		wreg, status,2, status,0, pclath, cstack
  5483 ;; Tracked objects:
  5484 ;;		On entry : 0/0
  5485 ;;		On exit  : 0/0
  5486 ;;		Unchanged: 0/0
  5487 ;; Data sizes:     COMMON   BANK0   BANK1   BANK2   BANK3   BANK4   BANK5   BANK6   BANK7   BANK8   BANK9  BANK10  BANK1
      +1  BANK12
  5488 ;;      Params:         0       4       0       0       0       0       0       0       0       0       0       0       
      +0       0
  5489 ;;      Locals:         0       0      24       0       0       0       0       0       0       0       0       0       
      +0       0
  5490 ;;      Temps:          0       0       0       0       0       0       0       0       0       0       0       0       
      +0       0
  5491 ;;      Totals:         0       4      24       0       0       0       0       0       0       0       0       0       
      +0       0
  5492 ;;Total ram usage:       28 bytes
  5493 ;; Hardware stack levels used: 1
  5494 ;; Hardware stack levels required when called: 5
  5495 ;; This function calls:
  5496 ;;		___fladd
  5497 ;;		___flmul
  5498 ;; This function is called by:
  5499 ;;		_sinf
  5500 ;; This function uses a non-reentrant model
  5501 ;;
  5502                           
  5503     1668                     ___cosdf:	
  5504                           ;psect for function ___cosdf
  5505                           
  5506     1668                     l3258:	
  5507                           ;incstack = 0
  5508                           ; Regs used in ___cosdf: [wreg+status,2+status,0+pclath+cstack]
  5509                           
  5510     1668  0020               	movlb	0	; select bank0
  5511     1669  085F               	movf	___cosdf@x+3,w
  5512     166A  00B1               	movwf	___flmul@b+3
  5513     166B  085E               	movf	___cosdf@x+2,w
  5514     166C  00B0               	movwf	___flmul@b+2
  5515     166D  085D               	movf	___cosdf@x+1,w
  5516     166E  00AF               	movwf	___flmul@b+1
  5517     166F  085C               	movf	___cosdf@x,w
  5518     1670  00AE               	movwf	___flmul@b
  5519     1671  085F               	movf	___cosdf@x+3,w
  5520     1672  00B5               	movwf	___flmul@a+3
  5521     1673  085E               	movf	___cosdf@x+2,w
  5522     1674  00B4               	movwf	___flmul@a+2
  5523     1675  085D               	movf	___cosdf@x+1,w
  5524     1676  00B3               	movwf	___flmul@a+1
  5525     1677  085C               	movf	___cosdf@x,w
  5526     1678  00B2               	movwf	___flmul@a
  5527     1679  318D  25C5  3196   	fcall	___flmul
  5528     167C  0020               	movlb	0	; select bank0
  5529     167D  0831               	movf	?___flmul+3,w
  5530     167E  0021               	movlb	1	; select bank1
  5531     167F  00B7               	movwf	(___cosdf@z+3)^(0+128)
  5532     1680  0020               	movlb	0	; select bank0
  5533     1681  0830               	movf	?___flmul+2,w
  5534     1682  0021               	movlb	1	; select bank1
  5535     1683  00B6               	movwf	(___cosdf@z+2)^(0+128)
  5536     1684  0020               	movlb	0	; select bank0
  5537     1685  082F               	movf	?___flmul+1,w
  5538     1686  0021               	movlb	1	; select bank1
  5539     1687  00B5               	movwf	(___cosdf@z+1)^(0+128)
  5540     1688  0020               	movlb	0	; select bank0
  5541     1689  082E               	movf	?___flmul,w
  5542     168A  0021               	movlb	1	; select bank1
  5543     168B  00B4               	movwf	___cosdf@z^(0+128)
  5544     168C  0837               	movf	(___cosdf@z+3)^(0+128),w
  5545     168D  0020               	movlb	0	; select bank0
  5546     168E  00B1               	movwf	___flmul@b+3
  5547     168F  0021               	movlb	1	; select bank1
  5548     1690  0836               	movf	(___cosdf@z+2)^(0+128),w
  5549     1691  0020               	movlb	0	; select bank0
  5550     1692  00B0               	movwf	___flmul@b+2
  5551     1693  0021               	movlb	1	; select bank1
  5552     1694  0835               	movf	(___cosdf@z+1)^(0+128),w
  5553     1695  0020               	movlb	0	; select bank0
  5554     1696  00AF               	movwf	___flmul@b+1
  5555     1697  0021               	movlb	1	; select bank1
  5556     1698  0834               	movf	___cosdf@z^(0+128),w
  5557     1699  0020               	movlb	0	; select bank0
  5558     169A  00AE               	movwf	___flmul@b
  5559     169B  0021               	movlb	1	; select bank1
  5560     169C  0837               	movf	(___cosdf@z+3)^(0+128),w
  5561     169D  0020               	movlb	0	; select bank0
  5562     169E  00B5               	movwf	___flmul@a+3
  5563     169F  0021               	movlb	1	; select bank1
  5564     16A0  0836               	movf	(___cosdf@z+2)^(0+128),w
  5565     16A1  0020               	movlb	0	; select bank0
  5566     16A2  00B4               	movwf	___flmul@a+2
  5567     16A3  0021               	movlb	1	; select bank1
  5568     16A4  0835               	movf	(___cosdf@z+1)^(0+128),w
  5569     16A5  0020               	movlb	0	; select bank0
  5570     16A6  00B3               	movwf	___flmul@a+1
  5571     16A7  0021               	movlb	1	; select bank1
  5572     16A8  0834               	movf	___cosdf@z^(0+128),w
  5573     16A9  0020               	movlb	0	; select bank0
  5574     16AA  00B2               	movwf	___flmul@a
  5575     16AB  318D  25C5  3196   	fcall	___flmul
  5576     16AE  0020               	movlb	0	; select bank0
  5577     16AF  0831               	movf	?___flmul+3,w
  5578     16B0  0021               	movlb	1	; select bank1
  5579     16B1  00B3               	movwf	(___cosdf@w+3)^(0+128)
  5580     16B2  0020               	movlb	0	; select bank0
  5581     16B3  0830               	movf	?___flmul+2,w
  5582     16B4  0021               	movlb	1	; select bank1
  5583     16B5  00B2               	movwf	(___cosdf@w+2)^(0+128)
  5584     16B6  0020               	movlb	0	; select bank0
  5585     16B7  082F               	movf	?___flmul+1,w
  5586     16B8  0021               	movlb	1	; select bank1
  5587     16B9  00B1               	movwf	(___cosdf@w+1)^(0+128)
  5588     16BA  0020               	movlb	0	; select bank0
  5589     16BB  082E               	movf	?___flmul,w
  5590     16BC  0021               	movlb	1	; select bank1
  5591     16BD  00B0               	movwf	___cosdf@w^(0+128)
  5592     16BE  30BA               	movlw	186
  5593     16BF  0020               	movlb	0	; select bank0
  5594     16C0  00CB               	movwf	___fladd@b+3
  5595     16C1  30B6               	movlw	182
  5596     16C2  00CA               	movwf	___fladd@b+2
  5597     16C3  3004               	movlw	4
  5598     16C4  00C9               	movwf	___fladd@b+1
  5599     16C5  303F               	movlw	63
  5600     16C6  00C8               	movwf	___fladd@b
  5601     16C7  3037               	movlw	55
  5602     16C8  00B1               	movwf	___flmul@b+3
  5603     16C9  30CC               	movlw	204
  5604     16CA  00B0               	movwf	___flmul@b+2
  5605     16CB  309A               	movlw	154
  5606     16CC  00AF               	movwf	___flmul@b+1
  5607     16CD  3017               	movlw	23
  5608     16CE  00AE               	movwf	___flmul@b
  5609     16CF  0021               	movlb	1	; select bank1
  5610     16D0  0837               	movf	(___cosdf@z+3)^(0+128),w
  5611     16D1  0020               	movlb	0	; select bank0
  5612     16D2  00B5               	movwf	___flmul@a+3
  5613     16D3  0021               	movlb	1	; select bank1
  5614     16D4  0836               	movf	(___cosdf@z+2)^(0+128),w
  5615     16D5  0020               	movlb	0	; select bank0
  5616     16D6  00B4               	movwf	___flmul@a+2
  5617     16D7  0021               	movlb	1	; select bank1
  5618     16D8  0835               	movf	(___cosdf@z+1)^(0+128),w
  5619     16D9  0020               	movlb	0	; select bank0
  5620     16DA  00B3               	movwf	___flmul@a+1
  5621     16DB  0021               	movlb	1	; select bank1
  5622     16DC  0834               	movf	___cosdf@z^(0+128),w
  5623     16DD  0020               	movlb	0	; select bank0
  5624     16DE  00B2               	movwf	___flmul@a
  5625     16DF  318D  25C5  3196   	fcall	___flmul
  5626     16E2  0020               	movlb	0	; select bank0
  5627     16E3  0831               	movf	?___flmul+3,w
  5628     16E4  00CF               	movwf	___fladd@a+3
  5629     16E5  0830               	movf	?___flmul+2,w
  5630     16E6  00CE               	movwf	___fladd@a+2
  5631     16E7  082F               	movf	?___flmul+1,w
  5632     16E8  00CD               	movwf	___fladd@a+1
  5633     16E9  082E               	movf	?___flmul,w
  5634     16EA  00CC               	movwf	___fladd@a
  5635     16EB  318B  23BD  3196   	fcall	___fladd
  5636     16EE  0020               	movlb	0	; select bank0
  5637     16EF  084B               	movf	?___fladd+3,w
  5638     16F0  0021               	movlb	1	; select bank1
  5639     16F1  00A3               	movwf	(___cosdf@r+3)^(0+128)
  5640     16F2  0020               	movlb	0	; select bank0
  5641     16F3  084A               	movf	?___fladd+2,w
  5642     16F4  0021               	movlb	1	; select bank1
  5643     16F5  00A2               	movwf	(___cosdf@r+2)^(0+128)
  5644     16F6  0020               	movlb	0	; select bank0
  5645     16F7  0849               	movf	?___fladd+1,w
  5646     16F8  0021               	movlb	1	; select bank1
  5647     16F9  00A1               	movwf	(___cosdf@r+1)^(0+128)
  5648     16FA  0020               	movlb	0	; select bank0
  5649     16FB  0848               	movf	?___fladd,w
  5650     16FC  0021               	movlb	1	; select bank1
  5651     16FD  00A0               	movwf	___cosdf@r^(0+128)
  5652     16FE  0837               	movf	(___cosdf@z+3)^(0+128),w
  5653     16FF  0020               	movlb	0	; select bank0
  5654     1700  00B1               	movwf	___flmul@b+3
  5655     1701  0021               	movlb	1	; select bank1
  5656     1702  0836               	movf	(___cosdf@z+2)^(0+128),w
  5657     1703  0020               	movlb	0	; select bank0
  5658     1704  00B0               	movwf	___flmul@b+2
  5659     1705  0021               	movlb	1	; select bank1
  5660     1706  0835               	movf	(___cosdf@z+1)^(0+128),w
  5661     1707  0020               	movlb	0	; select bank0
  5662     1708  00AF               	movwf	___flmul@b+1
  5663     1709  0021               	movlb	1	; select bank1
  5664     170A  0834               	movf	___cosdf@z^(0+128),w
  5665     170B  0020               	movlb	0	; select bank0
  5666     170C  00AE               	movwf	___flmul@b
  5667     170D  0021               	movlb	1	; select bank1
  5668     170E  0833               	movf	(___cosdf@w+3)^(0+128),w
  5669     170F  0020               	movlb	0	; select bank0
  5670     1710  00B5               	movwf	___flmul@a+3
  5671     1711  0021               	movlb	1	; select bank1
  5672     1712  0832               	movf	(___cosdf@w+2)^(0+128),w
  5673     1713  0020               	movlb	0	; select bank0
  5674     1714  00B4               	movwf	___flmul@a+2
  5675     1715  0021               	movlb	1	; select bank1
  5676     1716  0831               	movf	(___cosdf@w+1)^(0+128),w
  5677     1717  0020               	movlb	0	; select bank0
  5678     1718  00B3               	movwf	___flmul@a+1
  5679     1719  0021               	movlb	1	; select bank1
  5680     171A  0830               	movf	___cosdf@w^(0+128),w
  5681     171B  0020               	movlb	0	; select bank0
  5682     171C  00B2               	movwf	___flmul@a
  5683     171D  318D  25C5  3196   	fcall	___flmul
  5684     1720  0020               	movlb	0	; select bank0
  5685     1721  0831               	movf	?___flmul+3,w
  5686     1722  0021               	movlb	1	; select bank1
  5687     1723  00A7               	movwf	(___cosdf$689+3)^(0+128)
  5688     1724  0020               	movlb	0	; select bank0
  5689     1725  0830               	movf	?___flmul+2,w
  5690     1726  0021               	movlb	1	; select bank1
  5691     1727  00A6               	movwf	(___cosdf$689+2)^(0+128)
  5692     1728  0020               	movlb	0	; select bank0
  5693     1729  082F               	movf	?___flmul+1,w
  5694     172A  0021               	movlb	1	; select bank1
  5695     172B  00A5               	movwf	(___cosdf$689+1)^(0+128)
  5696     172C  0020               	movlb	0	; select bank0
  5697     172D  082E               	movf	?___flmul,w
  5698     172E  0021               	movlb	1	; select bank1
  5699     172F  00A4               	movwf	___cosdf$689^(0+128)
  5700     1730  303F               	movlw	63
  5701     1731  0020               	movlb	0	; select bank0
  5702     1732  00CB               	movwf	___fladd@b+3
  5703     1733  3080               	movlw	128
  5704     1734  00CA               	movwf	___fladd@b+2
  5705     1735  3000               	movlw	0
  5706     1736  00C9               	movwf	___fladd@b+1
  5707     1737  3000               	movlw	0
  5708     1738  00C8               	movwf	___fladd@b
  5709     1739  30BF               	movlw	191
  5710     173A  00B1               	movwf	___flmul@b+3
  5711     173B  3000               	movlw	0
  5712     173C  00B0               	movwf	___flmul@b+2
  5713     173D  3000               	movlw	0
  5714     173E  00AF               	movwf	___flmul@b+1
  5715     173F  3000               	movlw	0
  5716     1740  00AE               	movwf	___flmul@b
  5717     1741  0021               	movlb	1	; select bank1
  5718     1742  0837               	movf	(___cosdf@z+3)^(0+128),w
  5719     1743  0020               	movlb	0	; select bank0
  5720     1744  00B5               	movwf	___flmul@a+3
  5721     1745  0021               	movlb	1	; select bank1
  5722     1746  0836               	movf	(___cosdf@z+2)^(0+128),w
  5723     1747  0020               	movlb	0	; select bank0
  5724     1748  00B4               	movwf	___flmul@a+2
  5725     1749  0021               	movlb	1	; select bank1
  5726     174A  0835               	movf	(___cosdf@z+1)^(0+128),w
  5727     174B  0020               	movlb	0	; select bank0
  5728     174C  00B3               	movwf	___flmul@a+1
  5729     174D  0021               	movlb	1	; select bank1
  5730     174E  0834               	movf	___cosdf@z^(0+128),w
  5731     174F  0020               	movlb	0	; select bank0
  5732     1750  00B2               	movwf	___flmul@a
  5733     1751  318D  25C5  3196   	fcall	___flmul
  5734     1754  0020               	movlb	0	; select bank0
  5735     1755  0831               	movf	?___flmul+3,w
  5736     1756  00CF               	movwf	___fladd@a+3
  5737     1757  0830               	movf	?___flmul+2,w
  5738     1758  00CE               	movwf	___fladd@a+2
  5739     1759  082F               	movf	?___flmul+1,w
  5740     175A  00CD               	movwf	___fladd@a+1
  5741     175B  082E               	movf	?___flmul,w
  5742     175C  00CC               	movwf	___fladd@a
  5743     175D  318B  23BD  3196   	fcall	___fladd
  5744     1760  0020               	movlb	0	; select bank0
  5745     1761  084B               	movf	?___fladd+3,w
  5746     1762  0021               	movlb	1	; select bank1
  5747     1763  00AB               	movwf	(___cosdf$690+3)^(0+128)
  5748     1764  0020               	movlb	0	; select bank0
  5749     1765  084A               	movf	?___fladd+2,w
  5750     1766  0021               	movlb	1	; select bank1
  5751     1767  00AA               	movwf	(___cosdf$690+2)^(0+128)
  5752     1768  0020               	movlb	0	; select bank0
  5753     1769  0849               	movf	?___fladd+1,w
  5754     176A  0021               	movlb	1	; select bank1
  5755     176B  00A9               	movwf	(___cosdf$690+1)^(0+128)
  5756     176C  0020               	movlb	0	; select bank0
  5757     176D  0848               	movf	?___fladd,w
  5758     176E  0021               	movlb	1	; select bank1
  5759     176F  00A8               	movwf	___cosdf$690^(0+128)
  5760     1770  303D               	movlw	61
  5761     1771  0020               	movlb	0	; select bank0
  5762     1772  00B1               	movwf	___flmul@b+3
  5763     1773  302A               	movlw	42
  5764     1774  00B0               	movwf	___flmul@b+2
  5765     1775  30AA               	movlw	170
  5766     1776  00AF               	movwf	___flmul@b+1
  5767     1777  309F               	movlw	159
  5768     1778  00AE               	movwf	___flmul@b
  5769     1779  0021               	movlb	1	; select bank1
  5770     177A  0833               	movf	(___cosdf@w+3)^(0+128),w
  5771     177B  0020               	movlb	0	; select bank0
  5772     177C  00B5               	movwf	___flmul@a+3
  5773     177D  0021               	movlb	1	; select bank1
  5774     177E  0832               	movf	(___cosdf@w+2)^(0+128),w
  5775     177F  0020               	movlb	0	; select bank0
  5776     1780  00B4               	movwf	___flmul@a+2
  5777     1781  0021               	movlb	1	; select bank1
  5778     1782  0831               	movf	(___cosdf@w+1)^(0+128),w
  5779     1783  0020               	movlb	0	; select bank0
  5780     1784  00B3               	movwf	___flmul@a+1
  5781     1785  0021               	movlb	1	; select bank1
  5782     1786  0830               	movf	___cosdf@w^(0+128),w
  5783     1787  0020               	movlb	0	; select bank0
  5784     1788  00B2               	movwf	___flmul@a
  5785     1789  318D  25C5  3196   	fcall	___flmul
  5786     178C  0020               	movlb	0	; select bank0
  5787     178D  0831               	movf	?___flmul+3,w
  5788     178E  00CB               	movwf	___fladd@b+3
  5789     178F  0830               	movf	?___flmul+2,w
  5790     1790  00CA               	movwf	___fladd@b+2
  5791     1791  082F               	movf	?___flmul+1,w
  5792     1792  00C9               	movwf	___fladd@b+1
  5793     1793  082E               	movf	?___flmul,w
  5794     1794  00C8               	movwf	___fladd@b
  5795     1795  0021               	movlb	1	; select bank1
  5796     1796  082B               	movf	(___cosdf$690+3)^(0+128),w
  5797     1797  0020               	movlb	0	; select bank0
  5798     1798  00CF               	movwf	___fladd@a+3
  5799     1799  0021               	movlb	1	; select bank1
  5800     179A  082A               	movf	(___cosdf$690+2)^(0+128),w
  5801     179B  0020               	movlb	0	; select bank0
  5802     179C  00CE               	movwf	___fladd@a+2
  5803     179D  0021               	movlb	1	; select bank1
  5804     179E  0829               	movf	(___cosdf$690+1)^(0+128),w
  5805     179F  0020               	movlb	0	; select bank0
  5806     17A0  00CD               	movwf	___fladd@a+1
  5807     17A1  0021               	movlb	1	; select bank1
  5808     17A2  0828               	movf	___cosdf$690^(0+128),w
  5809     17A3  0020               	movlb	0	; select bank0
  5810     17A4  00CC               	movwf	___fladd@a
  5811     17A5  318B  23BD  3196   	fcall	___fladd
  5812     17A8  0020               	movlb	0	; select bank0
  5813     17A9  084B               	movf	?___fladd+3,w
  5814     17AA  0021               	movlb	1	; select bank1
  5815     17AB  00AF               	movwf	(___cosdf$691+3)^(0+128)
  5816     17AC  0020               	movlb	0	; select bank0
  5817     17AD  084A               	movf	?___fladd+2,w
  5818     17AE  0021               	movlb	1	; select bank1
  5819     17AF  00AE               	movwf	(___cosdf$691+2)^(0+128)
  5820     17B0  0020               	movlb	0	; select bank0
  5821     17B1  0849               	movf	?___fladd+1,w
  5822     17B2  0021               	movlb	1	; select bank1
  5823     17B3  00AD               	movwf	(___cosdf$691+1)^(0+128)
  5824     17B4  0020               	movlb	0	; select bank0
  5825     17B5  0848               	movf	?___fladd,w
  5826     17B6  0021               	movlb	1	; select bank1
  5827     17B7  00AC               	movwf	___cosdf$691^(0+128)
  5828     17B8  0823               	movf	(___cosdf@r+3)^(0+128),w
  5829     17B9  0020               	movlb	0	; select bank0
  5830     17BA  00B1               	movwf	___flmul@b+3
  5831     17BB  0021               	movlb	1	; select bank1
  5832     17BC  0822               	movf	(___cosdf@r+2)^(0+128),w
  5833     17BD  0020               	movlb	0	; select bank0
  5834     17BE  00B0               	movwf	___flmul@b+2
  5835     17BF  0021               	movlb	1	; select bank1
  5836     17C0  0821               	movf	(___cosdf@r+1)^(0+128),w
  5837     17C1  0020               	movlb	0	; select bank0
  5838     17C2  00AF               	movwf	___flmul@b+1
  5839     17C3  0021               	movlb	1	; select bank1
  5840     17C4  0820               	movf	___cosdf@r^(0+128),w
  5841     17C5  0020               	movlb	0	; select bank0
  5842     17C6  00AE               	movwf	___flmul@b
  5843     17C7  0021               	movlb	1	; select bank1
  5844     17C8  0827               	movf	(___cosdf$689+3)^(0+128),w
  5845     17C9  0020               	movlb	0	; select bank0
  5846     17CA  00B5               	movwf	___flmul@a+3
  5847     17CB  0021               	movlb	1	; select bank1
  5848     17CC  0826               	movf	(___cosdf$689+2)^(0+128),w
  5849     17CD  0020               	movlb	0	; select bank0
  5850     17CE  00B4               	movwf	___flmul@a+2
  5851     17CF  0021               	movlb	1	; select bank1
  5852     17D0  0825               	movf	(___cosdf$689+1)^(0+128),w
  5853     17D1  0020               	movlb	0	; select bank0
  5854     17D2  00B3               	movwf	___flmul@a+1
  5855     17D3  0021               	movlb	1	; select bank1
  5856     17D4  0824               	movf	___cosdf$689^(0+128),w
  5857     17D5  0020               	movlb	0	; select bank0
  5858     17D6  00B2               	movwf	___flmul@a
  5859     17D7  318D  25C5  3196   	fcall	___flmul
  5860     17DA  0020               	movlb	0	; select bank0
  5861     17DB  0831               	movf	?___flmul+3,w
  5862     17DC  00CB               	movwf	___fladd@b+3
  5863     17DD  0830               	movf	?___flmul+2,w
  5864     17DE  00CA               	movwf	___fladd@b+2
  5865     17DF  082F               	movf	?___flmul+1,w
  5866     17E0  00C9               	movwf	___fladd@b+1
  5867     17E1  082E               	movf	?___flmul,w
  5868     17E2  00C8               	movwf	___fladd@b
  5869     17E3  0021               	movlb	1	; select bank1
  5870     17E4  082F               	movf	(___cosdf$691+3)^(0+128),w
  5871     17E5  0020               	movlb	0	; select bank0
  5872     17E6  00CF               	movwf	___fladd@a+3
  5873     17E7  0021               	movlb	1	; select bank1
  5874     17E8  082E               	movf	(___cosdf$691+2)^(0+128),w
  5875     17E9  0020               	movlb	0	; select bank0
  5876     17EA  00CE               	movwf	___fladd@a+2
  5877     17EB  0021               	movlb	1	; select bank1
  5878     17EC  082D               	movf	(___cosdf$691+1)^(0+128),w
  5879     17ED  0020               	movlb	0	; select bank0
  5880     17EE  00CD               	movwf	___fladd@a+1
  5881     17EF  0021               	movlb	1	; select bank1
  5882     17F0  082C               	movf	___cosdf$691^(0+128),w
  5883     17F1  0020               	movlb	0	; select bank0
  5884     17F2  00CC               	movwf	___fladd@a
  5885     17F3  318B  23BD  3196   	fcall	___fladd
  5886     17F6  0020               	movlb	0	; select bank0
  5887     17F7  084B               	movf	?___fladd+3,w
  5888     17F8  00DF               	movwf	?___cosdf+3
  5889     17F9  084A               	movf	?___fladd+2,w
  5890     17FA  00DE               	movwf	?___cosdf+2
  5891     17FB  0849               	movf	?___fladd+1,w
  5892     17FC  00DD               	movwf	?___cosdf+1
  5893     17FD  0848               	movf	?___fladd,w
  5894     17FE  00DC               	movwf	?___cosdf
  5895     17FF                     l729:
  5896     17FF  0008               	return
  5897     1800                     __end_of___cosdf:
  5898                           
  5899                           	psect	text11
  5900     0DC5                     __ptext11:	
  5901 ;; *************** function ___flmul *****************
  5902 ;; Defined at:
  5903 ;;		line 8 in file "C:\Program Files\Microchip\xc8\v2.40\pic\sources\c99\common\sprcmul.c"
  5904 ;; Parameters:    Size  Location     Type
  5905 ;;  b               4   14[BANK0 ] float 
  5906 ;;  a               4   18[BANK0 ] float 
  5907 ;; Auto vars:     Size  Location     Type
  5908 ;;  prod            4   34[BANK0 ] struct .
  5909 ;;  grs             4   29[BANK0 ] unsigned long 
  5910 ;;  temp            2   38[BANK0 ] struct .
  5911 ;;  bexp            1   33[BANK0 ] unsigned char 
  5912 ;;  aexp            1   28[BANK0 ] unsigned char 
  5913 ;;  sign            1   27[BANK0 ] unsigned char 
  5914 ;; Return value:  Size  Location     Type
  5915 ;;                  4   14[BANK0 ] unsigned char 
  5916 ;; Registers used:
  5917 ;;		wreg, status,2, status,0, pclath, cstack
  5918 ;; Tracked objects:
  5919 ;;		On entry : 0/0
  5920 ;;		On exit  : 0/0
  5921 ;;		Unchanged: 0/0
  5922 ;; Data sizes:     COMMON   BANK0   BANK1   BANK2   BANK3   BANK4   BANK5   BANK6   BANK7   BANK8   BANK9  BANK10  BANK1
      +1  BANK12
  5923 ;;      Params:         0       8       0       0       0       0       0       0       0       0       0       0       
      +0       0
  5924 ;;      Locals:         0      13       0       0       0       0       0       0       0       0       0       0       
      +0       0
  5925 ;;      Temps:          0       5       0       0       0       0       0       0       0       0       0       0       
      +0       0
  5926 ;;      Totals:         0      26       0       0       0       0       0       0       0       0       0       0       
      +0       0
  5927 ;;Total ram usage:       26 bytes
  5928 ;; Hardware stack levels used: 1
  5929 ;; Hardware stack levels required when called: 4
  5930 ;; This function calls:
  5931 ;;		__Umul8_16
  5932 ;; This function is called by:
  5933 ;;		_sine_table_gen
  5934 ;;		___cosdf
  5935 ;;		___rem_pio2f
  5936 ;;		___sindf
  5937 ;; This function uses a non-reentrant model
  5938 ;;
  5939                           
  5940     0DC5                     ___flmul:	
  5941                           ;psect for function ___flmul
  5942                           
  5943     0DC5                     l3060:	
  5944                           ;incstack = 0
  5945                           ; Regs used in ___flmul: [wreg+status,2+status,0+pclath+cstack]
  5946                           
  5947     0DC5  0020               	movlb	0	; select bank0
  5948     0DC6  0831               	movf	___flmul@b+3,w
  5949     0DC7  3980               	andlw	128
  5950     0DC8  00BB               	movwf	___flmul@sign
  5951     0DC9                     l3062:
  5952     0DC9  3531               	lslf	___flmul@b+3,w
  5953     0DCA  00C1               	movwf	___flmul@bexp
  5954     0DCB                     l3064:
  5955     0DCB  1FB0               	btfss	___flmul@b+2,7
  5956     0DCC  2DCE               	goto	u3881
  5957     0DCD  2DCF               	goto	u3880
  5958     0DCE                     u3881:
  5959     0DCE  2DD0               	goto	l3068
  5960     0DCF                     u3880:
  5961     0DCF                     l3066:
  5962     0DCF  1441               	bsf	___flmul@bexp,0
  5963     0DD0                     l3068:
  5964     0DD0  0841               	movf	___flmul@bexp,w
  5965     0DD1  1903               	btfsc	3,2
  5966     0DD2  2DD4               	goto	u3891
  5967     0DD3  2DD5               	goto	u3890
  5968     0DD4                     u3891:
  5969     0DD4  2DE4               	goto	l3076
  5970     0DD5                     u3890:
  5971     0DD5                     l3070:
  5972     0DD5  0A41               	incf	___flmul@bexp,w
  5973     0DD6  1D03               	btfss	3,2
  5974     0DD7  2DD9               	goto	u3901
  5975     0DD8  2DDA               	goto	u3900
  5976     0DD9                     u3901:
  5977     0DD9  2DE2               	goto	l3074
  5978     0DDA                     u3900:
  5979     0DDA                     l3072:
  5980     0DDA  3000               	movlw	0
  5981     0DDB  00B1               	movwf	___flmul@b+3
  5982     0DDC  3000               	movlw	0
  5983     0DDD  00B0               	movwf	___flmul@b+2
  5984     0DDE  3000               	movlw	0
  5985     0DDF  00AF               	movwf	___flmul@b+1
  5986     0DE0  3000               	movlw	0
  5987     0DE1  00AE               	movwf	___flmul@b
  5988     0DE2                     l3074:
  5989     0DE2  17B0               	bsf	___flmul@b+2,7
  5990     0DE3  2DEC               	goto	l3078
  5991     0DE4                     l3076:
  5992     0DE4  3000               	movlw	0
  5993     0DE5  00B1               	movwf	___flmul@b+3
  5994     0DE6  3000               	movlw	0
  5995     0DE7  00B0               	movwf	___flmul@b+2
  5996     0DE8  3000               	movlw	0
  5997     0DE9  00AF               	movwf	___flmul@b+1
  5998     0DEA  3000               	movlw	0
  5999     0DEB  00AE               	movwf	___flmul@b
  6000     0DEC                     l3078:
  6001     0DEC  0835               	movf	___flmul@a+3,w
  6002     0DED  3980               	andlw	128
  6003     0DEE  00B6               	movwf	??___flmul
  6004     0DEF  0836               	movf	??___flmul,w
  6005     0DF0  06BB               	xorwf	___flmul@sign,f
  6006     0DF1                     l3080:
  6007     0DF1  3535               	lslf	___flmul@a+3,w
  6008     0DF2  00BC               	movwf	___flmul@aexp
  6009     0DF3                     l3082:
  6010     0DF3  1FB4               	btfss	___flmul@a+2,7
  6011     0DF4  2DF6               	goto	u3911
  6012     0DF5  2DF7               	goto	u3910
  6013     0DF6                     u3911:
  6014     0DF6  2DF8               	goto	l3086
  6015     0DF7                     u3910:
  6016     0DF7                     l3084:
  6017     0DF7  143C               	bsf	___flmul@aexp,0
  6018     0DF8                     l3086:
  6019     0DF8  083C               	movf	___flmul@aexp,w
  6020     0DF9  1903               	btfsc	3,2
  6021     0DFA  2DFC               	goto	u3921
  6022     0DFB  2DFD               	goto	u3920
  6023     0DFC                     u3921:
  6024     0DFC  2E0C               	goto	l3094
  6025     0DFD                     u3920:
  6026     0DFD                     l3088:
  6027     0DFD  0A3C               	incf	___flmul@aexp,w
  6028     0DFE  1D03               	btfss	3,2
  6029     0DFF  2E01               	goto	u3931
  6030     0E00  2E02               	goto	u3930
  6031     0E01                     u3931:
  6032     0E01  2E0A               	goto	l3092
  6033     0E02                     u3930:
  6034     0E02                     l3090:
  6035     0E02  3000               	movlw	0
  6036     0E03  00B5               	movwf	___flmul@a+3
  6037     0E04  3000               	movlw	0
  6038     0E05  00B4               	movwf	___flmul@a+2
  6039     0E06  3000               	movlw	0
  6040     0E07  00B3               	movwf	___flmul@a+1
  6041     0E08  3000               	movlw	0
  6042     0E09  00B2               	movwf	___flmul@a
  6043     0E0A                     l3092:
  6044     0E0A  17B4               	bsf	___flmul@a+2,7
  6045     0E0B  2E14               	goto	l3096
  6046     0E0C                     l3094:
  6047     0E0C  3000               	movlw	0
  6048     0E0D  00B5               	movwf	___flmul@a+3
  6049     0E0E  3000               	movlw	0
  6050     0E0F  00B4               	movwf	___flmul@a+2
  6051     0E10  3000               	movlw	0
  6052     0E11  00B3               	movwf	___flmul@a+1
  6053     0E12  3000               	movlw	0
  6054     0E13  00B2               	movwf	___flmul@a
  6055     0E14                     l3096:
  6056     0E14  083C               	movf	___flmul@aexp,w
  6057     0E15  1903               	btfsc	3,2
  6058     0E16  2E18               	goto	u3941
  6059     0E17  2E19               	goto	u3940
  6060     0E18                     u3941:
  6061     0E18  2E1E               	goto	l3100
  6062     0E19                     u3940:
  6063     0E19                     l3098:
  6064     0E19  0841               	movf	___flmul@bexp,w
  6065     0E1A  1D03               	btfss	3,2
  6066     0E1B  2E1D               	goto	u3951
  6067     0E1C  2E1E               	goto	u3950
  6068     0E1D                     u3951:
  6069     0E1D  2E27               	goto	l3104
  6070     0E1E                     u3950:
  6071     0E1E                     l3100:
  6072     0E1E  3000               	movlw	0
  6073     0E1F  00B1               	movwf	?___flmul+3
  6074     0E20  3000               	movlw	0
  6075     0E21  00B0               	movwf	?___flmul+2
  6076     0E22  3000               	movlw	0
  6077     0E23  00AF               	movwf	?___flmul+1
  6078     0E24  3000               	movlw	0
  6079     0E25  00AE               	movwf	?___flmul
  6080     0E26  2FFF               	goto	l615
  6081     0E27                     l3104:
  6082     0E27  082E               	movf	___flmul@b,w
  6083     0E28  00A0               	movwf	__Umul8_16@multiplicand
  6084     0E29  0834               	movf	___flmul@a+2,w
  6085     0E2A  3192  22F9  318D   	fcall	__Umul8_16
  6086     0E2D  0020               	movlb	0	; select bank0
  6087     0E2E  0821               	movf	?__Umul8_16+1,w
  6088     0E2F  00C7               	movwf	___flmul@temp+1
  6089     0E30  0820               	movf	?__Umul8_16,w
  6090     0E31  00C6               	movwf	___flmul@temp
  6091     0E32                     l3106:
  6092     0E32  0846               	movf	___flmul@temp,w
  6093     0E33  00B6               	movwf	??___flmul
  6094     0E34  01B7               	clrf	??___flmul+1
  6095     0E35  01B8               	clrf	??___flmul+2
  6096     0E36  01B9               	clrf	??___flmul+3
  6097     0E37  0839               	movf	??___flmul+3,w
  6098     0E38  00C0               	movwf	___flmul@grs+3
  6099     0E39  0838               	movf	??___flmul+2,w
  6100     0E3A  00BF               	movwf	___flmul@grs+2
  6101     0E3B  0837               	movf	??___flmul+1,w
  6102     0E3C  00BE               	movwf	___flmul@grs+1
  6103     0E3D  0836               	movf	??___flmul,w
  6104     0E3E  00BD               	movwf	___flmul@grs
  6105     0E3F                     l3108:
  6106     0E3F  0847               	movf	___flmul@temp+1,w
  6107     0E40  00B6               	movwf	??___flmul
  6108     0E41  01B7               	clrf	??___flmul+1
  6109     0E42  01B8               	clrf	??___flmul+2
  6110     0E43  01B9               	clrf	??___flmul+3
  6111     0E44  0839               	movf	??___flmul+3,w
  6112     0E45  00C5               	movwf	___flmul@prod+3
  6113     0E46  0838               	movf	??___flmul+2,w
  6114     0E47  00C4               	movwf	___flmul@prod+2
  6115     0E48  0837               	movf	??___flmul+1,w
  6116     0E49  00C3               	movwf	___flmul@prod+1
  6117     0E4A  0836               	movf	??___flmul,w
  6118     0E4B  00C2               	movwf	___flmul@prod
  6119     0E4C  082F               	movf	___flmul@b+1,w
  6120     0E4D  00A0               	movwf	__Umul8_16@multiplicand
  6121     0E4E  0833               	movf	___flmul@a+1,w
  6122     0E4F  3192  22F9  318D   	fcall	__Umul8_16
  6123     0E52  0020               	movlb	0	; select bank0
  6124     0E53  0821               	movf	?__Umul8_16+1,w
  6125     0E54  00C7               	movwf	___flmul@temp+1
  6126     0E55  0820               	movf	?__Umul8_16,w
  6127     0E56  00C6               	movwf	___flmul@temp
  6128     0E57                     l3110:
  6129     0E57  0846               	movf	___flmul@temp,w
  6130     0E58  00B6               	movwf	??___flmul
  6131     0E59  01B7               	clrf	??___flmul+1
  6132     0E5A  01B8               	clrf	??___flmul+2
  6133     0E5B  01B9               	clrf	??___flmul+3
  6134     0E5C  0836               	movf	??___flmul,w
  6135     0E5D  07BD               	addwf	___flmul@grs,f
  6136     0E5E  0837               	movf	??___flmul+1,w
  6137     0E5F  3DBE               	addwfc	___flmul@grs+1,f
  6138     0E60  0838               	movf	??___flmul+2,w
  6139     0E61  3DBF               	addwfc	___flmul@grs+2,f
  6140     0E62  0839               	movf	??___flmul+3,w
  6141     0E63  3DC0               	addwfc	___flmul@grs+3,f
  6142     0E64                     l3112:
  6143     0E64  0847               	movf	___flmul@temp+1,w
  6144     0E65  00B6               	movwf	??___flmul
  6145     0E66  01B7               	clrf	??___flmul+1
  6146     0E67  01B8               	clrf	??___flmul+2
  6147     0E68  01B9               	clrf	??___flmul+3
  6148     0E69  0836               	movf	??___flmul,w
  6149     0E6A  07C2               	addwf	___flmul@prod,f
  6150     0E6B  0837               	movf	??___flmul+1,w
  6151     0E6C  3DC3               	addwfc	___flmul@prod+1,f
  6152     0E6D  0838               	movf	??___flmul+2,w
  6153     0E6E  3DC4               	addwfc	___flmul@prod+2,f
  6154     0E6F  0839               	movf	??___flmul+3,w
  6155     0E70  3DC5               	addwfc	___flmul@prod+3,f
  6156     0E71  0830               	movf	___flmul@b+2,w
  6157     0E72  00A0               	movwf	__Umul8_16@multiplicand
  6158     0E73  0832               	movf	___flmul@a,w
  6159     0E74  3192  22F9  318D   	fcall	__Umul8_16
  6160     0E77  0020               	movlb	0	; select bank0
  6161     0E78  0821               	movf	?__Umul8_16+1,w
  6162     0E79  00C7               	movwf	___flmul@temp+1
  6163     0E7A  0820               	movf	?__Umul8_16,w
  6164     0E7B  00C6               	movwf	___flmul@temp
  6165     0E7C                     l3114:
  6166     0E7C  0846               	movf	___flmul@temp,w
  6167     0E7D  00B6               	movwf	??___flmul
  6168     0E7E  01B7               	clrf	??___flmul+1
  6169     0E7F  01B8               	clrf	??___flmul+2
  6170     0E80  01B9               	clrf	??___flmul+3
  6171     0E81  0836               	movf	??___flmul,w
  6172     0E82  07BD               	addwf	___flmul@grs,f
  6173     0E83  0837               	movf	??___flmul+1,w
  6174     0E84  3DBE               	addwfc	___flmul@grs+1,f
  6175     0E85  0838               	movf	??___flmul+2,w
  6176     0E86  3DBF               	addwfc	___flmul@grs+2,f
  6177     0E87  0839               	movf	??___flmul+3,w
  6178     0E88  3DC0               	addwfc	___flmul@grs+3,f
  6179     0E89                     l3116:
  6180     0E89  0847               	movf	___flmul@temp+1,w
  6181     0E8A  00B6               	movwf	??___flmul
  6182     0E8B  01B7               	clrf	??___flmul+1
  6183     0E8C  01B8               	clrf	??___flmul+2
  6184     0E8D  01B9               	clrf	??___flmul+3
  6185     0E8E  0836               	movf	??___flmul,w
  6186     0E8F  07C2               	addwf	___flmul@prod,f
  6187     0E90  0837               	movf	??___flmul+1,w
  6188     0E91  3DC3               	addwfc	___flmul@prod+1,f
  6189     0E92  0838               	movf	??___flmul+2,w
  6190     0E93  3DC4               	addwfc	___flmul@prod+2,f
  6191     0E94  0839               	movf	??___flmul+3,w
  6192     0E95  3DC5               	addwfc	___flmul@prod+3,f
  6193     0E96                     l3118:
  6194     0E96  3008               	movlw	8
  6195     0E97                     u3965:
  6196     0E97  35BD               	lslf	___flmul@grs,f
  6197     0E98  0DBE               	rlf	___flmul@grs+1,f
  6198     0E99  0DBF               	rlf	___flmul@grs+2,f
  6199     0E9A  0DC0               	rlf	___flmul@grs+3,f
  6200     0E9B  0B89               	decfsz	9,f
  6201     0E9C  2E97               	goto	u3965
  6202     0E9D                     l3120:
  6203     0E9D  082F               	movf	___flmul@b+1,w
  6204     0E9E  00A0               	movwf	__Umul8_16@multiplicand
  6205     0E9F  0832               	movf	___flmul@a,w
  6206     0EA0  3192  22F9  318D   	fcall	__Umul8_16
  6207     0EA3  0020               	movlb	0	; select bank0
  6208     0EA4  0821               	movf	?__Umul8_16+1,w
  6209     0EA5  00C7               	movwf	___flmul@temp+1
  6210     0EA6  0820               	movf	?__Umul8_16,w
  6211     0EA7  00C6               	movwf	___flmul@temp
  6212     0EA8                     l3122:
  6213     0EA8  0846               	movf	___flmul@temp,w
  6214     0EA9  07BD               	addwf	___flmul@grs,f
  6215     0EAA  0847               	movf	___flmul@temp+1,w
  6216     0EAB  3DBE               	addwfc	___flmul@grs+1,f
  6217     0EAC  3000               	movlw	0
  6218     0EAD  3DBF               	addwfc	___flmul@grs+2,f
  6219     0EAE  3DC0               	addwfc	___flmul@grs+3,f
  6220     0EAF                     l3124:
  6221     0EAF  082E               	movf	___flmul@b,w
  6222     0EB0  00A0               	movwf	__Umul8_16@multiplicand
  6223     0EB1  0833               	movf	___flmul@a+1,w
  6224     0EB2  3192  22F9  318D   	fcall	__Umul8_16
  6225     0EB5  0020               	movlb	0	; select bank0
  6226     0EB6  0821               	movf	?__Umul8_16+1,w
  6227     0EB7  00C7               	movwf	___flmul@temp+1
  6228     0EB8  0820               	movf	?__Umul8_16,w
  6229     0EB9  00C6               	movwf	___flmul@temp
  6230     0EBA                     l3126:
  6231     0EBA  0846               	movf	___flmul@temp,w
  6232     0EBB  07BD               	addwf	___flmul@grs,f
  6233     0EBC  0847               	movf	___flmul@temp+1,w
  6234     0EBD  3DBE               	addwfc	___flmul@grs+1,f
  6235     0EBE  3000               	movlw	0
  6236     0EBF  3DBF               	addwfc	___flmul@grs+2,f
  6237     0EC0  3DC0               	addwfc	___flmul@grs+3,f
  6238     0EC1                     l3128:
  6239     0EC1  3008               	movlw	8
  6240     0EC2                     u3975:
  6241     0EC2  35BD               	lslf	___flmul@grs,f
  6242     0EC3  0DBE               	rlf	___flmul@grs+1,f
  6243     0EC4  0DBF               	rlf	___flmul@grs+2,f
  6244     0EC5  0DC0               	rlf	___flmul@grs+3,f
  6245     0EC6  0B89               	decfsz	9,f
  6246     0EC7  2EC2               	goto	u3975
  6247     0EC8  082E               	movf	___flmul@b,w
  6248     0EC9  00A0               	movwf	__Umul8_16@multiplicand
  6249     0ECA  0832               	movf	___flmul@a,w
  6250     0ECB  3192  22F9  318D   	fcall	__Umul8_16
  6251     0ECE  0020               	movlb	0	; select bank0
  6252     0ECF  0821               	movf	?__Umul8_16+1,w
  6253     0ED0  00C7               	movwf	___flmul@temp+1
  6254     0ED1  0820               	movf	?__Umul8_16,w
  6255     0ED2  00C6               	movwf	___flmul@temp
  6256     0ED3                     l3130:
  6257     0ED3  0846               	movf	___flmul@temp,w
  6258     0ED4  07BD               	addwf	___flmul@grs,f
  6259     0ED5  0847               	movf	___flmul@temp+1,w
  6260     0ED6  3DBE               	addwfc	___flmul@grs+1,f
  6261     0ED7  3000               	movlw	0
  6262     0ED8  3DBF               	addwfc	___flmul@grs+2,f
  6263     0ED9  3DC0               	addwfc	___flmul@grs+3,f
  6264     0EDA                     l3132:
  6265     0EDA  082F               	movf	___flmul@b+1,w
  6266     0EDB  00A0               	movwf	__Umul8_16@multiplicand
  6267     0EDC  0834               	movf	___flmul@a+2,w
  6268     0EDD  3192  22F9  318D   	fcall	__Umul8_16
  6269     0EE0  0020               	movlb	0	; select bank0
  6270     0EE1  0821               	movf	?__Umul8_16+1,w
  6271     0EE2  00C7               	movwf	___flmul@temp+1
  6272     0EE3  0820               	movf	?__Umul8_16,w
  6273     0EE4  00C6               	movwf	___flmul@temp
  6274     0EE5  0846               	movf	___flmul@temp,w
  6275     0EE6  07C2               	addwf	___flmul@prod,f
  6276     0EE7  0847               	movf	___flmul@temp+1,w
  6277     0EE8  3DC3               	addwfc	___flmul@prod+1,f
  6278     0EE9  3000               	movlw	0
  6279     0EEA  3DC4               	addwfc	___flmul@prod+2,f
  6280     0EEB  3DC5               	addwfc	___flmul@prod+3,f
  6281     0EEC                     l3134:
  6282     0EEC  0830               	movf	___flmul@b+2,w
  6283     0EED  00A0               	movwf	__Umul8_16@multiplicand
  6284     0EEE  0833               	movf	___flmul@a+1,w
  6285     0EEF  3192  22F9  318D   	fcall	__Umul8_16
  6286     0EF2  0020               	movlb	0	; select bank0
  6287     0EF3  0821               	movf	?__Umul8_16+1,w
  6288     0EF4  00C7               	movwf	___flmul@temp+1
  6289     0EF5  0820               	movf	?__Umul8_16,w
  6290     0EF6  00C6               	movwf	___flmul@temp
  6291     0EF7                     l3136:
  6292     0EF7  0846               	movf	___flmul@temp,w
  6293     0EF8  07C2               	addwf	___flmul@prod,f
  6294     0EF9  0847               	movf	___flmul@temp+1,w
  6295     0EFA  3DC3               	addwfc	___flmul@prod+1,f
  6296     0EFB  3000               	movlw	0
  6297     0EFC  3DC4               	addwfc	___flmul@prod+2,f
  6298     0EFD  3DC5               	addwfc	___flmul@prod+3,f
  6299     0EFE  0830               	movf	___flmul@b+2,w
  6300     0EFF  00A0               	movwf	__Umul8_16@multiplicand
  6301     0F00  0834               	movf	___flmul@a+2,w
  6302     0F01  3192  22F9  318D   	fcall	__Umul8_16
  6303     0F04  0020               	movlb	0	; select bank0
  6304     0F05  0821               	movf	?__Umul8_16+1,w
  6305     0F06  00C7               	movwf	___flmul@temp+1
  6306     0F07  0820               	movf	?__Umul8_16,w
  6307     0F08  00C6               	movwf	___flmul@temp
  6308     0F09                     l3138:
  6309     0F09  0846               	movf	___flmul@temp,w
  6310     0F0A  00B6               	movwf	??___flmul
  6311     0F0B  0847               	movf	___flmul@temp+1,w
  6312     0F0C  00B7               	movwf	??___flmul+1
  6313     0F0D  01B8               	clrf	??___flmul+2
  6314     0F0E  01B9               	clrf	??___flmul+3
  6315     0F0F  3008               	movlw	8
  6316     0F10                     u3985:
  6317     0F10  35B6               	lslf	??___flmul,f
  6318     0F11  0DB7               	rlf	??___flmul+1,f
  6319     0F12  0DB8               	rlf	??___flmul+2,f
  6320     0F13  0DB9               	rlf	??___flmul+3,f
  6321     0F14                     u3980:
  6322     0F14  0B89               	decfsz	9,f
  6323     0F15  2F10               	goto	u3985
  6324     0F16  0836               	movf	??___flmul,w
  6325     0F17  07C2               	addwf	___flmul@prod,f
  6326     0F18  0837               	movf	??___flmul+1,w
  6327     0F19  3DC3               	addwfc	___flmul@prod+1,f
  6328     0F1A  0838               	movf	??___flmul+2,w
  6329     0F1B  3DC4               	addwfc	___flmul@prod+2,f
  6330     0F1C  0839               	movf	??___flmul+3,w
  6331     0F1D  3DC5               	addwfc	___flmul@prod+3,f
  6332     0F1E                     l3140:
  6333     0F1E  083D               	movf	___flmul@grs,w
  6334     0F1F  00B6               	movwf	??___flmul
  6335     0F20  083E               	movf	___flmul@grs+1,w
  6336     0F21  00B7               	movwf	??___flmul+1
  6337     0F22  083F               	movf	___flmul@grs+2,w
  6338     0F23  00B8               	movwf	??___flmul+2
  6339     0F24  0840               	movf	___flmul@grs+3,w
  6340     0F25  00B9               	movwf	??___flmul+3
  6341     0F26  3018               	movlw	24
  6342     0F27                     u3995:
  6343     0F27  36B9               	lsrf	??___flmul+3,f
  6344     0F28  0CB8               	rrf	??___flmul+2,f
  6345     0F29  0CB7               	rrf	??___flmul+1,f
  6346     0F2A  0CB6               	rrf	??___flmul,f
  6347     0F2B                     u3990:
  6348     0F2B  0B89               	decfsz	9,f
  6349     0F2C  2F27               	goto	u3995
  6350     0F2D  0836               	movf	??___flmul,w
  6351     0F2E  07C2               	addwf	___flmul@prod,f
  6352     0F2F  0837               	movf	??___flmul+1,w
  6353     0F30  3DC3               	addwfc	___flmul@prod+1,f
  6354     0F31  0838               	movf	??___flmul+2,w
  6355     0F32  3DC4               	addwfc	___flmul@prod+2,f
  6356     0F33  0839               	movf	??___flmul+3,w
  6357     0F34  3DC5               	addwfc	___flmul@prod+3,f
  6358     0F35                     l3142:
  6359     0F35  3008               	movlw	8
  6360     0F36                     u4005:
  6361     0F36  35BD               	lslf	___flmul@grs,f
  6362     0F37  0DBE               	rlf	___flmul@grs+1,f
  6363     0F38  0DBF               	rlf	___flmul@grs+2,f
  6364     0F39  0DC0               	rlf	___flmul@grs+3,f
  6365     0F3A  0B89               	decfsz	9,f
  6366     0F3B  2F36               	goto	u4005
  6367     0F3C                     l3144:
  6368     0F3C  0841               	movf	___flmul@bexp,w
  6369     0F3D  073C               	addwf	___flmul@aexp,w
  6370     0F3E  00B6               	movwf	??___flmul
  6371     0F3F  01B7               	clrf	??___flmul+1
  6372     0F40  0DB7               	rlf	??___flmul+1,f
  6373     0F41  0836               	movf	??___flmul,w
  6374     0F42  3E82               	addlw	130
  6375     0F43  00C6               	movwf	___flmul@temp
  6376     0F44  30FF               	movlw	255
  6377     0F45  3D37               	addwfc	??___flmul+1,w
  6378     0F46  00C7               	movwf	___flmul@temp+1
  6379     0F47  2F5F               	goto	l3156
  6380     0F48                     l3146:
  6381     0F48  3001               	movlw	1
  6382     0F49                     u4015:
  6383     0F49  35C2               	lslf	___flmul@prod,f
  6384     0F4A  0DC3               	rlf	___flmul@prod+1,f
  6385     0F4B  0DC4               	rlf	___flmul@prod+2,f
  6386     0F4C  0DC5               	rlf	___flmul@prod+3,f
  6387     0F4D  0B89               	decfsz	9,f
  6388     0F4E  2F49               	goto	u4015
  6389     0F4F                     l3148:
  6390     0F4F  1FC0               	btfss	___flmul@grs+3,7
  6391     0F50  2F52               	goto	u4021
  6392     0F51  2F53               	goto	u4020
  6393     0F52                     u4021:
  6394     0F52  2F54               	goto	l3152
  6395     0F53                     u4020:
  6396     0F53                     l3150:
  6397     0F53  1442               	bsf	___flmul@prod,0
  6398     0F54                     l3152:
  6399     0F54  3001               	movlw	1
  6400     0F55                     u4035:
  6401     0F55  35BD               	lslf	___flmul@grs,f
  6402     0F56  0DBE               	rlf	___flmul@grs+1,f
  6403     0F57  0DBF               	rlf	___flmul@grs+2,f
  6404     0F58  0DC0               	rlf	___flmul@grs+3,f
  6405     0F59  0B89               	decfsz	9,f
  6406     0F5A  2F55               	goto	u4035
  6407     0F5B                     l3154:
  6408     0F5B  30FF               	movlw	255
  6409     0F5C  07C6               	addwf	___flmul@temp,f
  6410     0F5D  30FF               	movlw	255
  6411     0F5E  3DC7               	addwfc	___flmul@temp+1,f
  6412     0F5F                     l3156:
  6413     0F5F  1FC4               	btfss	___flmul@prod+2,7
  6414     0F60  2F62               	goto	u4041
  6415     0F61  2F63               	goto	u4040
  6416     0F62                     u4041:
  6417     0F62  2F48               	goto	l3146
  6418     0F63                     u4040:
  6419     0F63                     l3158:
  6420     0F63  01BC               	clrf	___flmul@aexp
  6421     0F64                     l3160:
  6422     0F64  1FC0               	btfss	___flmul@grs+3,7
  6423     0F65  2F67               	goto	u4051
  6424     0F66  2F68               	goto	u4050
  6425     0F67                     u4051:
  6426     0F67  2F84               	goto	l3168
  6427     0F68                     u4050:
  6428     0F68                     l3162:
  6429     0F68  30FF               	movlw	255
  6430     0F69  053D               	andwf	___flmul@grs,w
  6431     0F6A  00B6               	movwf	??___flmul
  6432     0F6B  30FF               	movlw	255
  6433     0F6C  053E               	andwf	___flmul@grs+1,w
  6434     0F6D  00B7               	movwf	??___flmul+1
  6435     0F6E  30FF               	movlw	255
  6436     0F6F  053F               	andwf	___flmul@grs+2,w
  6437     0F70  00B8               	movwf	??___flmul+2
  6438     0F71  307F               	movlw	127
  6439     0F72  0540               	andwf	___flmul@grs+3,w
  6440     0F73  00B9               	movwf	??___flmul+3
  6441     0F74  0839               	movf	??___flmul+3,w
  6442     0F75  0438               	iorwf	??___flmul+2,w
  6443     0F76  0437               	iorwf	??___flmul+1,w
  6444     0F77  0436               	iorwf	??___flmul,w
  6445     0F78  1903               	skipnz
  6446     0F79  2F7B               	goto	u4061
  6447     0F7A  2F7C               	goto	u4060
  6448     0F7B                     u4061:
  6449     0F7B  2F7F               	goto	l621
  6450     0F7C                     u4060:
  6451     0F7C                     l3164:
  6452     0F7C  01BC               	clrf	___flmul@aexp
  6453     0F7D  0ABC               	incf	___flmul@aexp,f
  6454     0F7E  2F84               	goto	l3168
  6455     0F7F                     l621:
  6456     0F7F  1C42               	btfss	___flmul@prod,0
  6457     0F80  2F82               	goto	u4071
  6458     0F81  2F83               	goto	u4070
  6459     0F82                     u4071:
  6460     0F82  2F84               	goto	l3168
  6461     0F83                     u4070:
  6462     0F83  2F7C               	goto	l3164
  6463     0F84                     l3168:
  6464     0F84  083C               	movf	___flmul@aexp,w
  6465     0F85  1903               	btfsc	3,2
  6466     0F86  2F88               	goto	u4081
  6467     0F87  2F89               	goto	u4080
  6468     0F88                     u4081:
  6469     0F88  2FB1               	goto	l3178
  6470     0F89                     u4080:
  6471     0F89                     l3170:
  6472     0F89  3001               	movlw	1
  6473     0F8A  07C2               	addwf	___flmul@prod,f
  6474     0F8B  3000               	movlw	0
  6475     0F8C  3DC3               	addwfc	___flmul@prod+1,f
  6476     0F8D  3000               	movlw	0
  6477     0F8E  3DC4               	addwfc	___flmul@prod+2,f
  6478     0F8F  3000               	movlw	0
  6479     0F90  3DC5               	addwfc	___flmul@prod+3,f
  6480     0F91                     l3172:
  6481     0F91  1C45               	btfss	___flmul@prod+3,0
  6482     0F92  2F94               	goto	u4091
  6483     0F93  2F95               	goto	u4090
  6484     0F94                     u4091:
  6485     0F94  2FB1               	goto	l3178
  6486     0F95                     u4090:
  6487     0F95                     l3174:
  6488     0F95  0842               	movf	___flmul@prod,w
  6489     0F96  00B6               	movwf	??___flmul
  6490     0F97  0843               	movf	___flmul@prod+1,w
  6491     0F98  00B7               	movwf	??___flmul+1
  6492     0F99  0844               	movf	___flmul@prod+2,w
  6493     0F9A  00B8               	movwf	??___flmul+2
  6494     0F9B  0845               	movf	___flmul@prod+3,w
  6495     0F9C  00B9               	movwf	??___flmul+3
  6496     0F9D  3001               	movlw	1
  6497     0F9E  00BA               	movwf	??___flmul+4
  6498     0F9F                     u4105:
  6499     0F9F  37B9               	asrf	??___flmul+3,f
  6500     0FA0  0CB8               	rrf	??___flmul+2,f
  6501     0FA1  0CB7               	rrf	??___flmul+1,f
  6502     0FA2  0CB6               	rrf	??___flmul,f
  6503     0FA3                     u4100:
  6504     0FA3  0BBA               	decfsz	??___flmul+4,f
  6505     0FA4  2F9F               	goto	u4105
  6506     0FA5  0839               	movf	??___flmul+3,w
  6507     0FA6  00C5               	movwf	___flmul@prod+3
  6508     0FA7  0838               	movf	??___flmul+2,w
  6509     0FA8  00C4               	movwf	___flmul@prod+2
  6510     0FA9  0837               	movf	??___flmul+1,w
  6511     0FAA  00C3               	movwf	___flmul@prod+1
  6512     0FAB  0836               	movf	??___flmul,w
  6513     0FAC  00C2               	movwf	___flmul@prod
  6514     0FAD                     l3176:
  6515     0FAD  3001               	movlw	1
  6516     0FAE  07C6               	addwf	___flmul@temp,f
  6517     0FAF  3000               	movlw	0
  6518     0FB0  3DC7               	addwfc	___flmul@temp+1,f
  6519     0FB1                     l3178:
  6520     0FB1  0847               	movf	___flmul@temp+1,w
  6521     0FB2  3A80               	xorlw	128
  6522     0FB3  00B6               	movwf	??___flmul
  6523     0FB4  3080               	movlw	128
  6524     0FB5  0236               	subwf	??___flmul,w
  6525     0FB6  1D03               	skipz
  6526     0FB7  2FBA               	goto	u4115
  6527     0FB8  30FF               	movlw	255
  6528     0FB9  0246               	subwf	___flmul@temp,w
  6529     0FBA                     u4115:
  6530     0FBA  1C03               	skipc
  6531     0FBB  2FBD               	goto	u4111
  6532     0FBC  2FBE               	goto	u4110
  6533     0FBD                     u4111:
  6534     0FBD  2FC8               	goto	l3182
  6535     0FBE                     u4110:
  6536     0FBE                     l3180:
  6537     0FBE  307F               	movlw	127
  6538     0FBF  0020               	movlb	0	; select bank0
  6539     0FC0  00C5               	movwf	___flmul@prod+3
  6540     0FC1  3080               	movlw	128
  6541     0FC2  00C4               	movwf	___flmul@prod+2
  6542     0FC3  3000               	movlw	0
  6543     0FC4  00C3               	movwf	___flmul@prod+1
  6544     0FC5  3000               	movlw	0
  6545     0FC6  00C2               	movwf	___flmul@prod
  6546     0FC7  2FF3               	goto	l627
  6547     0FC8                     l3182:
  6548     0FC8  0020               	movlb	0	; select bank0
  6549     0FC9  0847               	movf	___flmul@temp+1,w
  6550     0FCA  3A80               	xorlw	128
  6551     0FCB  00B6               	movwf	??___flmul
  6552     0FCC  3080               	movlw	128
  6553     0FCD  0236               	subwf	??___flmul,w
  6554     0FCE  1D03               	skipz
  6555     0FCF  2FD2               	goto	u4125
  6556     0FD0  3001               	movlw	1
  6557     0FD1  0246               	subwf	___flmul@temp,w
  6558     0FD2                     u4125:
  6559     0FD2  1803               	skipnc
  6560     0FD3  2FD5               	goto	u4121
  6561     0FD4  2FD6               	goto	u4120
  6562     0FD5                     u4121:
  6563     0FD5  2FE1               	goto	l3188
  6564     0FD6                     u4120:
  6565     0FD6                     l3184:
  6566     0FD6  3000               	movlw	0
  6567     0FD7  0020               	movlb	0	; select bank0
  6568     0FD8  00C5               	movwf	___flmul@prod+3
  6569     0FD9  3000               	movlw	0
  6570     0FDA  00C4               	movwf	___flmul@prod+2
  6571     0FDB  3000               	movlw	0
  6572     0FDC  00C3               	movwf	___flmul@prod+1
  6573     0FDD  3000               	movlw	0
  6574     0FDE  00C2               	movwf	___flmul@prod
  6575     0FDF                     l3186:
  6576     0FDF  01BB               	clrf	___flmul@sign
  6577     0FE0  2FF3               	goto	l627
  6578     0FE1                     l3188:
  6579     0FE1  0020               	movlb	0	; select bank0
  6580     0FE2  0846               	movf	___flmul@temp,w
  6581     0FE3  00C1               	movwf	___flmul@bexp
  6582     0FE4  30FF               	movlw	255
  6583     0FE5  05C2               	andwf	___flmul@prod,f
  6584     0FE6  30FF               	movlw	255
  6585     0FE7  05C3               	andwf	___flmul@prod+1,f
  6586     0FE8  307F               	movlw	127
  6587     0FE9  05C4               	andwf	___flmul@prod+2,f
  6588     0FEA  3000               	movlw	0
  6589     0FEB  05C5               	andwf	___flmul@prod+3,f
  6590     0FEC                     l3190:
  6591     0FEC  1C41               	btfss	___flmul@bexp,0
  6592     0FED  2FEF               	goto	u4131
  6593     0FEE  2FF0               	goto	u4130
  6594     0FEF                     u4131:
  6595     0FEF  2FF1               	goto	l3194
  6596     0FF0                     u4130:
  6597     0FF0                     l3192:
  6598     0FF0  17C4               	bsf	___flmul@prod+2,7
  6599     0FF1                     l3194:
  6600     0FF1  3641               	lsrf	___flmul@bexp,w
  6601     0FF2  00C5               	movwf	___flmul@prod+3
  6602     0FF3                     l627:
  6603     0FF3  083B               	movf	___flmul@sign,w
  6604     0FF4  00B6               	movwf	??___flmul
  6605     0FF5  0836               	movf	??___flmul,w
  6606     0FF6  04C5               	iorwf	___flmul@prod+3,f
  6607     0FF7                     l3196:
  6608     0FF7  0845               	movf	___flmul@prod+3,w
  6609     0FF8  00B1               	movwf	?___flmul+3
  6610     0FF9  0844               	movf	___flmul@prod+2,w
  6611     0FFA  00B0               	movwf	?___flmul+2
  6612     0FFB  0843               	movf	___flmul@prod+1,w
  6613     0FFC  00AF               	movwf	?___flmul+1
  6614     0FFD  0842               	movf	___flmul@prod,w
  6615     0FFE  00AE               	movwf	?___flmul
  6616     0FFF                     l615:
  6617     0FFF  0008               	return
  6618     1000                     __end_of___flmul:
  6619                           
  6620                           	psect	text12
  6621     12F9                     __ptext12:	
  6622 ;; *************** function __Umul8_16 *****************
  6623 ;; Defined at:
  6624 ;;		line 4 in file "C:\Program Files\Microchip\xc8\v2.40\pic\sources\c99\common\Umul8_16.c"
  6625 ;; Parameters:    Size  Location     Type
  6626 ;;  multiplier      1    wreg     unsigned char 
  6627 ;;  multiplicand    1    0[BANK0 ] unsigned char 
  6628 ;; Auto vars:     Size  Location     Type
  6629 ;;  multiplier      1    8[BANK0 ] unsigned char 
  6630 ;;  word_mpld       2    6[BANK0 ] unsigned int 
  6631 ;;  product         2    4[BANK0 ] unsigned int 
  6632 ;; Return value:  Size  Location     Type
  6633 ;;                  2    0[BANK0 ] unsigned int 
  6634 ;; Registers used:
  6635 ;;		wreg, status,2, status,0
  6636 ;; Tracked objects:
  6637 ;;		On entry : 0/0
  6638 ;;		On exit  : 0/0
  6639 ;;		Unchanged: 0/0
  6640 ;; Data sizes:     COMMON   BANK0   BANK1   BANK2   BANK3   BANK4   BANK5   BANK6   BANK7   BANK8   BANK9  BANK10  BANK1
      +1  BANK12
  6641 ;;      Params:         0       2       0       0       0       0       0       0       0       0       0       0       
      +0       0
  6642 ;;      Locals:         0       5       0       0       0       0       0       0       0       0       0       0       
      +0       0
  6643 ;;      Temps:          0       2       0       0       0       0       0       0       0       0       0       0       
      +0       0
  6644 ;;      Totals:         0       9       0       0       0       0       0       0       0       0       0       0       
      +0       0
  6645 ;;Total ram usage:        9 bytes
  6646 ;; Hardware stack levels used: 1
  6647 ;; Hardware stack levels required when called: 3
  6648 ;; This function calls:
  6649 ;;		Nothing
  6650 ;; This function is called by:
  6651 ;;		___flmul
  6652 ;; This function uses a non-reentrant model
  6653 ;;
  6654                           
  6655     12F9                     __Umul8_16:	
  6656                           ;psect for function __Umul8_16
  6657                           
  6658                           
  6659                           ;incstack = 0
  6660                           ; Regs used in __Umul8_16: [wreg+status,2+status,0]
  6661                           ;__Umul8_16@multiplier stored from wreg
  6662     12F9  0020               	movlb	0	; select bank0
  6663     12FA  00A8               	movwf	__Umul8_16@multiplier
  6664     12FB                     l2990:
  6665     12FB  01A4               	clrf	__Umul8_16@product
  6666     12FC  01A5               	clrf	__Umul8_16@product+1
  6667     12FD                     l2992:
  6668     12FD  0820               	movf	__Umul8_16@multiplicand,w
  6669     12FE  00A2               	movwf	??__Umul8_16
  6670     12FF  01A3               	clrf	??__Umul8_16+1
  6671     1300  0822               	movf	??__Umul8_16,w
  6672     1301  00A6               	movwf	__Umul8_16@word_mpld
  6673     1302  0823               	movf	??__Umul8_16+1,w
  6674     1303  00A7               	movwf	__Umul8_16@word_mpld+1
  6675     1304                     l2994:
  6676     1304  1C28               	btfss	__Umul8_16@multiplier,0
  6677     1305  2B07               	goto	u3741
  6678     1306  2B08               	goto	u3740
  6679     1307                     u3741:
  6680     1307  2B0C               	goto	l634
  6681     1308                     u3740:
  6682     1308                     l2996:
  6683     1308  0826               	movf	__Umul8_16@word_mpld,w
  6684     1309  07A4               	addwf	__Umul8_16@product,f
  6685     130A  0827               	movf	__Umul8_16@word_mpld+1,w
  6686     130B  3DA5               	addwfc	__Umul8_16@product+1,f
  6687     130C                     l634:
  6688     130C  3001               	movlw	1
  6689     130D                     u3755:
  6690     130D  35A6               	lslf	__Umul8_16@word_mpld,f
  6691     130E  0DA7               	rlf	__Umul8_16@word_mpld+1,f
  6692     130F  0B89               	decfsz	9,f
  6693     1310  2B0D               	goto	u3755
  6694     1311  1003               	clrc
  6695     1312  0CA8               	rrf	__Umul8_16@multiplier,f
  6696     1313                     l2998:
  6697     1313  0828               	movf	__Umul8_16@multiplier,w
  6698     1314  1D03               	btfss	3,2
  6699     1315  2B17               	goto	u3761
  6700     1316  2B18               	goto	u3760
  6701     1317                     u3761:
  6702     1317  2B04               	goto	l2994
  6703     1318                     u3760:
  6704     1318                     l3000:
  6705     1318  0825               	movf	__Umul8_16@product+1,w
  6706     1319  00A1               	movwf	?__Umul8_16+1
  6707     131A  0824               	movf	__Umul8_16@product,w
  6708     131B  00A0               	movwf	?__Umul8_16
  6709     131C                     l636:
  6710     131C  0008               	return
  6711     131D                     __end_of__Umul8_16:
  6712                           
  6713                           	psect	text13
  6714     0BBD                     __ptext13:	
  6715 ;; *************** function ___fladd *****************
  6716 ;; Defined at:
  6717 ;;		line 10 in file "C:\Program Files\Microchip\xc8\v2.40\pic\sources\c99\common\sprcadd.c"
  6718 ;; Parameters:    Size  Location     Type
  6719 ;;  b               4   40[BANK0 ] unsigned int 
  6720 ;;  a               4   44[BANK0 ] unsigned int 
  6721 ;; Auto vars:     Size  Location     Type
  6722 ;;  grs             1   59[BANK0 ] unsigned char 
  6723 ;;  bexp            1   58[BANK0 ] unsigned char 
  6724 ;;  aexp            1   57[BANK0 ] unsigned char 
  6725 ;;  signs           1   56[BANK0 ] unsigned char 
  6726 ;; Return value:  Size  Location     Type
  6727 ;;                  4   40[BANK0 ] unsigned char 
  6728 ;; Registers used:
  6729 ;;		wreg, status,2, status,0
  6730 ;; Tracked objects:
  6731 ;;		On entry : 0/0
  6732 ;;		On exit  : 0/0
  6733 ;;		Unchanged: 0/0
  6734 ;; Data sizes:     COMMON   BANK0   BANK1   BANK2   BANK3   BANK4   BANK5   BANK6   BANK7   BANK8   BANK9  BANK10  BANK1
      +1  BANK12
  6735 ;;      Params:         0       8       0       0       0       0       0       0       0       0       0       0       
      +0       0
  6736 ;;      Locals:         0       4       0       0       0       0       0       0       0       0       0       0       
      +0       0
  6737 ;;      Temps:          0       8       0       0       0       0       0       0       0       0       0       0       
      +0       0
  6738 ;;      Totals:         0      20       0       0       0       0       0       0       0       0       0       0       
      +0       0
  6739 ;;Total ram usage:       20 bytes
  6740 ;; Hardware stack levels used: 1
  6741 ;; Hardware stack levels required when called: 3
  6742 ;; This function calls:
  6743 ;;		Nothing
  6744 ;; This function is called by:
  6745 ;;		___flsub
  6746 ;;		_sinf
  6747 ;;		___cosdf
  6748 ;;		___rem_pio2f
  6749 ;;		___sindf
  6750 ;; This function uses a non-reentrant model
  6751 ;;
  6752                           
  6753     0BBD                     ___fladd:	
  6754                           ;psect for function ___fladd
  6755                           
  6756     0BBD                     l2796:	
  6757                           ;incstack = 0
  6758                           ; Regs used in ___fladd: [wreg+status,2+status,0]
  6759                           
  6760     0BBD  0020               	movlb	0	; select bank0
  6761     0BBE  084B               	movf	___fladd@b+3,w
  6762     0BBF  3980               	andlw	128
  6763     0BC0  00D8               	movwf	___fladd@signs
  6764     0BC1                     l2798:
  6765     0BC1  354B               	lslf	___fladd@b+3,w
  6766     0BC2  00DA               	movwf	___fladd@bexp
  6767     0BC3                     l2800:
  6768     0BC3  1FCA               	btfss	___fladd@b+2,7
  6769     0BC4  2BC6               	goto	u3311
  6770     0BC5  2BC7               	goto	u3310
  6771     0BC6                     u3311:
  6772     0BC6  2BC8               	goto	l2804
  6773     0BC7                     u3310:
  6774     0BC7                     l2802:
  6775     0BC7  145A               	bsf	___fladd@bexp,0
  6776     0BC8                     l2804:
  6777     0BC8  085A               	movf	___fladd@bexp,w
  6778     0BC9  1903               	btfsc	3,2
  6779     0BCA  2BCC               	goto	u3321
  6780     0BCB  2BCD               	goto	u3320
  6781     0BCC                     u3321:
  6782     0BCC  2BDD               	goto	l2814
  6783     0BCD                     u3320:
  6784     0BCD                     l2806:
  6785     0BCD  0A5A               	incf	___fladd@bexp,w
  6786     0BCE  1D03               	btfss	3,2
  6787     0BCF  2BD1               	goto	u3331
  6788     0BD0  2BD2               	goto	u3330
  6789     0BD1                     u3331:
  6790     0BD1  2BDA               	goto	l2810
  6791     0BD2                     u3330:
  6792     0BD2                     l2808:
  6793     0BD2  3000               	movlw	0
  6794     0BD3  00CB               	movwf	___fladd@b+3
  6795     0BD4  3000               	movlw	0
  6796     0BD5  00CA               	movwf	___fladd@b+2
  6797     0BD6  3000               	movlw	0
  6798     0BD7  00C9               	movwf	___fladd@b+1
  6799     0BD8  3000               	movlw	0
  6800     0BD9  00C8               	movwf	___fladd@b
  6801     0BDA                     l2810:
  6802     0BDA  17CA               	bsf	___fladd@b+2,7
  6803     0BDB                     l2812:
  6804     0BDB  01CB               	clrf	___fladd@b+3
  6805     0BDC  2BE5               	goto	l2816
  6806     0BDD                     l2814:
  6807     0BDD  3000               	movlw	0
  6808     0BDE  00CB               	movwf	___fladd@b+3
  6809     0BDF  3000               	movlw	0
  6810     0BE0  00CA               	movwf	___fladd@b+2
  6811     0BE1  3000               	movlw	0
  6812     0BE2  00C9               	movwf	___fladd@b+1
  6813     0BE3  3000               	movlw	0
  6814     0BE4  00C8               	movwf	___fladd@b
  6815     0BE5                     l2816:
  6816     0BE5  084F               	movf	___fladd@a+3,w
  6817     0BE6  3980               	andlw	128
  6818     0BE7  00D9               	movwf	___fladd@aexp
  6819     0BE8                     l2818:
  6820     0BE8  0859               	movf	___fladd@aexp,w
  6821     0BE9  0658               	xorwf	___fladd@signs,w
  6822     0BEA  1903               	skipnz
  6823     0BEB  2BED               	goto	u3341
  6824     0BEC  2BEE               	goto	u3340
  6825     0BED                     u3341:
  6826     0BED  2BEF               	goto	l2822
  6827     0BEE                     u3340:
  6828     0BEE                     l2820:
  6829     0BEE  1758               	bsf	___fladd@signs,6
  6830     0BEF                     l2822:
  6831     0BEF  354F               	lslf	___fladd@a+3,w
  6832     0BF0  00D9               	movwf	___fladd@aexp
  6833     0BF1                     l2824:
  6834     0BF1  1FCE               	btfss	___fladd@a+2,7
  6835     0BF2  2BF4               	goto	u3351
  6836     0BF3  2BF5               	goto	u3350
  6837     0BF4                     u3351:
  6838     0BF4  2BF6               	goto	l2828
  6839     0BF5                     u3350:
  6840     0BF5                     l2826:
  6841     0BF5  1459               	bsf	___fladd@aexp,0
  6842     0BF6                     l2828:
  6843     0BF6  0859               	movf	___fladd@aexp,w
  6844     0BF7  1903               	btfsc	3,2
  6845     0BF8  2BFA               	goto	u3361
  6846     0BF9  2BFB               	goto	u3360
  6847     0BFA                     u3361:
  6848     0BFA  2C0B               	goto	l2838
  6849     0BFB                     u3360:
  6850     0BFB                     l2830:
  6851     0BFB  0A59               	incf	___fladd@aexp,w
  6852     0BFC  1D03               	btfss	3,2
  6853     0BFD  2BFF               	goto	u3371
  6854     0BFE  2C00               	goto	u3370
  6855     0BFF                     u3371:
  6856     0BFF  2C08               	goto	l2834
  6857     0C00                     u3370:
  6858     0C00                     l2832:
  6859     0C00  3000               	movlw	0
  6860     0C01  00CF               	movwf	___fladd@a+3
  6861     0C02  3000               	movlw	0
  6862     0C03  00CE               	movwf	___fladd@a+2
  6863     0C04  3000               	movlw	0
  6864     0C05  00CD               	movwf	___fladd@a+1
  6865     0C06  3000               	movlw	0
  6866     0C07  00CC               	movwf	___fladd@a
  6867     0C08                     l2834:
  6868     0C08  17CE               	bsf	___fladd@a+2,7
  6869     0C09                     l2836:
  6870     0C09  01CF               	clrf	___fladd@a+3
  6871     0C0A  2C13               	goto	l519
  6872     0C0B                     l2838:
  6873     0C0B  3000               	movlw	0
  6874     0C0C  00CF               	movwf	___fladd@a+3
  6875     0C0D  3000               	movlw	0
  6876     0C0E  00CE               	movwf	___fladd@a+2
  6877     0C0F  3000               	movlw	0
  6878     0C10  00CD               	movwf	___fladd@a+1
  6879     0C11  3000               	movlw	0
  6880     0C12  00CC               	movwf	___fladd@a
  6881     0C13                     l519:
  6882     0C13  085A               	movf	___fladd@bexp,w
  6883     0C14  0259               	subwf	___fladd@aexp,w
  6884     0C15  1803               	skipnc
  6885     0C16  2C18               	goto	u3381
  6886     0C17  2C19               	goto	u3380
  6887     0C18                     u3381:
  6888     0C18  2C3F               	goto	l2874
  6889     0C19                     u3380:
  6890     0C19                     l2840:
  6891     0C19  1F58               	btfss	___fladd@signs,6
  6892     0C1A  2C1C               	goto	u3391
  6893     0C1B  2C1D               	goto	u3390
  6894     0C1C                     u3391:
  6895     0C1C  2C21               	goto	l2844
  6896     0C1D                     u3390:
  6897     0C1D                     l2842:
  6898     0C1D  3080               	movlw	128
  6899     0C1E  00D0               	movwf	??___fladd
  6900     0C1F  0850               	movf	??___fladd,w
  6901     0C20  06D8               	xorwf	___fladd@signs,f
  6902     0C21                     l2844:
  6903     0C21  085A               	movf	___fladd@bexp,w
  6904     0C22  00DB               	movwf	___fladd@grs
  6905     0C23                     l2846:
  6906     0C23  0859               	movf	___fladd@aexp,w
  6907     0C24  00DA               	movwf	___fladd@bexp
  6908     0C25                     l2848:
  6909     0C25  085B               	movf	___fladd@grs,w
  6910     0C26  00D9               	movwf	___fladd@aexp
  6911     0C27                     l2850:
  6912     0C27  0848               	movf	___fladd@b,w
  6913     0C28  00DB               	movwf	___fladd@grs
  6914     0C29                     l2852:
  6915     0C29  084C               	movf	___fladd@a,w
  6916     0C2A  00C8               	movwf	___fladd@b
  6917     0C2B                     l2854:
  6918     0C2B  085B               	movf	___fladd@grs,w
  6919     0C2C  00CC               	movwf	___fladd@a
  6920     0C2D                     l2856:
  6921     0C2D  0849               	movf	___fladd@b+1,w
  6922     0C2E  00DB               	movwf	___fladd@grs
  6923     0C2F                     l2858:
  6924     0C2F  084D               	movf	___fladd@a+1,w
  6925     0C30  00C9               	movwf	___fladd@b+1
  6926     0C31                     l2860:
  6927     0C31  085B               	movf	___fladd@grs,w
  6928     0C32  00CD               	movwf	___fladd@a+1
  6929     0C33                     l2862:
  6930     0C33  084A               	movf	___fladd@b+2,w
  6931     0C34  00DB               	movwf	___fladd@grs
  6932     0C35                     l2864:
  6933     0C35  084E               	movf	___fladd@a+2,w
  6934     0C36  00CA               	movwf	___fladd@b+2
  6935     0C37                     l2866:
  6936     0C37  085B               	movf	___fladd@grs,w
  6937     0C38  00CE               	movwf	___fladd@a+2
  6938     0C39                     l2868:
  6939     0C39  084B               	movf	___fladd@b+3,w
  6940     0C3A  00DB               	movwf	___fladd@grs
  6941     0C3B                     l2870:
  6942     0C3B  084F               	movf	___fladd@a+3,w
  6943     0C3C  00CB               	movwf	___fladd@b+3
  6944     0C3D                     l2872:
  6945     0C3D  085B               	movf	___fladd@grs,w
  6946     0C3E  00CF               	movwf	___fladd@a+3
  6947     0C3F                     l2874:
  6948     0C3F  01DB               	clrf	___fladd@grs
  6949     0C40                     l2876:
  6950     0C40  0859               	movf	___fladd@aexp,w
  6951     0C41  00D0               	movwf	??___fladd
  6952     0C42  01D1               	clrf	??___fladd+1
  6953     0C43  0851               	movf	??___fladd+1,w
  6954     0C44  00D3               	movwf	??___fladd+3
  6955     0C45  085A               	movf	___fladd@bexp,w
  6956     0C46  0250               	subwf	??___fladd,w
  6957     0C47  00D2               	movwf	??___fladd+2
  6958     0C48  1C03               	skipc
  6959     0C49  03D3               	decf	??___fladd+3,f
  6960     0C4A  0853               	movf	??___fladd+3,w
  6961     0C4B  3A80               	xorlw	128
  6962     0C4C  00D4               	movwf	??___fladd+4
  6963     0C4D  3080               	movlw	128
  6964     0C4E  0254               	subwf	??___fladd+4,w
  6965     0C4F  1D03               	skipz
  6966     0C50  2C53               	goto	u3405
  6967     0C51  301A               	movlw	26
  6968     0C52  0252               	subwf	??___fladd+2,w
  6969     0C53                     u3405:
  6970     0C53  1C03               	skipc
  6971     0C54  2C56               	goto	u3401
  6972     0C55  2C57               	goto	u3400
  6973     0C56                     u3401:
  6974     0C56  2C89               	goto	l2892
  6975     0C57                     u3400:
  6976     0C57                     l2878:
  6977     0C57  0020               	movlb	0	; select bank0
  6978     0C58  084B               	movf	___fladd@b+3,w
  6979     0C59  044A               	iorwf	___fladd@b+2,w
  6980     0C5A  0449               	iorwf	___fladd@b+1,w
  6981     0C5B  0448               	iorwf	___fladd@b,w
  6982     0C5C  1D03               	skipz
  6983     0C5D  2C5F               	goto	u3411
  6984     0C5E  2C61               	goto	u3410
  6985     0C5F                     u3411:
  6986     0C5F  3001               	movlw	1
  6987     0C60  2C62               	goto	u3420
  6988     0C61                     u3410:
  6989     0C61  3000               	movlw	0
  6990     0C62                     u3420:
  6991     0C62  00DB               	movwf	___fladd@grs
  6992     0C63  3000               	movlw	0
  6993     0C64  00CB               	movwf	___fladd@b+3
  6994     0C65  3000               	movlw	0
  6995     0C66  00CA               	movwf	___fladd@b+2
  6996     0C67  3000               	movlw	0
  6997     0C68  00C9               	movwf	___fladd@b+1
  6998     0C69  3000               	movlw	0
  6999     0C6A  00C8               	movwf	___fladd@b
  7000     0C6B  0859               	movf	___fladd@aexp,w
  7001     0C6C  00DA               	movwf	___fladd@bexp
  7002     0C6D  2C90               	goto	l523
  7003     0C6E                     l525:
  7004     0C6E  1C5B               	btfss	___fladd@grs,0
  7005     0C6F  2C71               	goto	u3431
  7006     0C70  2C72               	goto	u3430
  7007     0C71                     u3431:
  7008     0C71  2C76               	goto	l2882
  7009     0C72                     u3430:
  7010     0C72                     l2880:
  7011     0C72  365B               	lsrf	___fladd@grs,w
  7012     0C73  3801               	iorlw	1
  7013     0C74  00DB               	movwf	___fladd@grs
  7014     0C75  2C78               	goto	l2884
  7015     0C76                     l2882:
  7016     0C76  1003               	clrc
  7017     0C77  0CDB               	rrf	___fladd@grs,f
  7018     0C78                     l2884:
  7019     0C78  1C48               	btfss	___fladd@b,0
  7020     0C79  2C7B               	goto	u3441
  7021     0C7A  2C7C               	goto	u3440
  7022     0C7B                     u3441:
  7023     0C7B  2C7D               	goto	l2888
  7024     0C7C                     u3440:
  7025     0C7C                     l2886:
  7026     0C7C  17DB               	bsf	___fladd@grs,7
  7027     0C7D                     l2888:
  7028     0C7D  3001               	movlw	1
  7029     0C7E  00D0               	movwf	??___fladd
  7030     0C7F                     u3455:
  7031     0C7F  37CB               	asrf	___fladd@b+3,f
  7032     0C80  0CCA               	rrf	___fladd@b+2,f
  7033     0C81  0CC9               	rrf	___fladd@b+1,f
  7034     0C82  0CC8               	rrf	___fladd@b,f
  7035     0C83  0BD0               	decfsz	??___fladd& (0+127),f
  7036     0C84  2C7F               	goto	u3455
  7037     0C85                     l2890:
  7038     0C85  3001               	movlw	1
  7039     0C86  00D0               	movwf	??___fladd
  7040     0C87  0850               	movf	??___fladd,w
  7041     0C88  07DA               	addwf	___fladd@bexp,f
  7042     0C89                     l2892:
  7043     0C89  0020               	movlb	0	; select bank0
  7044     0C8A  0859               	movf	___fladd@aexp,w
  7045     0C8B  025A               	subwf	___fladd@bexp,w
  7046     0C8C  1C03               	skipc
  7047     0C8D  2C8F               	goto	u3461
  7048     0C8E  2C90               	goto	u3460
  7049     0C8F                     u3461:
  7050     0C8F  2C6E               	goto	l525
  7051     0C90                     u3460:
  7052     0C90                     l523:
  7053     0C90  1B58               	btfsc	___fladd@signs,6
  7054     0C91  2C93               	goto	u3471
  7055     0C92  2C94               	goto	u3470
  7056     0C93                     u3471:
  7057     0C93  2CCA               	goto	l2918
  7058     0C94                     u3470:
  7059     0C94                     l2894:
  7060     0C94  085A               	movf	___fladd@bexp,w
  7061     0C95  1D03               	btfss	3,2
  7062     0C96  2C98               	goto	u3481
  7063     0C97  2C99               	goto	u3480
  7064     0C98                     u3481:
  7065     0C98  2CA2               	goto	l2900
  7066     0C99                     u3480:
  7067     0C99                     l2896:
  7068     0C99  3000               	movlw	0
  7069     0C9A  00CB               	movwf	?___fladd+3
  7070     0C9B  3000               	movlw	0
  7071     0C9C  00CA               	movwf	?___fladd+2
  7072     0C9D  3000               	movlw	0
  7073     0C9E  00C9               	movwf	?___fladd+1
  7074     0C9F  3000               	movlw	0
  7075     0CA0  00C8               	movwf	?___fladd
  7076     0CA1  2DC4               	goto	l532
  7077     0CA2                     l2900:
  7078     0CA2  084C               	movf	___fladd@a,w
  7079     0CA3  07C8               	addwf	___fladd@b,f
  7080     0CA4  084D               	movf	___fladd@a+1,w
  7081     0CA5  3DC9               	addwfc	___fladd@b+1,f
  7082     0CA6  084E               	movf	___fladd@a+2,w
  7083     0CA7  3DCA               	addwfc	___fladd@b+2,f
  7084     0CA8  084F               	movf	___fladd@a+3,w
  7085     0CA9  3DCB               	addwfc	___fladd@b+3,f
  7086     0CAA                     l2902:
  7087     0CAA  1C4B               	btfss	___fladd@b+3,0
  7088     0CAB  2CAD               	goto	u3491
  7089     0CAC  2CAE               	goto	u3490
  7090     0CAD                     u3491:
  7091     0CAD  2D56               	goto	l2952
  7092     0CAE                     u3490:
  7093     0CAE                     l2904:
  7094     0CAE  1C5B               	btfss	___fladd@grs,0
  7095     0CAF  2CB1               	goto	u3501
  7096     0CB0  2CB2               	goto	u3500
  7097     0CB1                     u3501:
  7098     0CB1  2CB6               	goto	l2908
  7099     0CB2                     u3500:
  7100     0CB2                     l2906:
  7101     0CB2  365B               	lsrf	___fladd@grs,w
  7102     0CB3  3801               	iorlw	1
  7103     0CB4  00DB               	movwf	___fladd@grs
  7104     0CB5  2CB8               	goto	l2910
  7105     0CB6                     l2908:
  7106     0CB6  1003               	clrc
  7107     0CB7  0CDB               	rrf	___fladd@grs,f
  7108     0CB8                     l2910:
  7109     0CB8  1C48               	btfss	___fladd@b,0
  7110     0CB9  2CBB               	goto	u3511
  7111     0CBA  2CBC               	goto	u3510
  7112     0CBB                     u3511:
  7113     0CBB  2CBD               	goto	l2914
  7114     0CBC                     u3510:
  7115     0CBC                     l2912:
  7116     0CBC  17DB               	bsf	___fladd@grs,7
  7117     0CBD                     l2914:
  7118     0CBD  3001               	movlw	1
  7119     0CBE  00D0               	movwf	??___fladd
  7120     0CBF                     u3525:
  7121     0CBF  37CB               	asrf	___fladd@b+3,f
  7122     0CC0  0CCA               	rrf	___fladd@b+2,f
  7123     0CC1  0CC9               	rrf	___fladd@b+1,f
  7124     0CC2  0CC8               	rrf	___fladd@b,f
  7125     0CC3  0BD0               	decfsz	??___fladd& (0+127),f
  7126     0CC4  2CBF               	goto	u3525
  7127     0CC5                     l2916:
  7128     0CC5  3001               	movlw	1
  7129     0CC6  00D0               	movwf	??___fladd
  7130     0CC7  0850               	movf	??___fladd,w
  7131     0CC8  07DA               	addwf	___fladd@bexp,f
  7132     0CC9  2D56               	goto	l2952
  7133     0CCA                     l2918:
  7134     0CCA  084B               	movf	___fladd@b+3,w
  7135     0CCB  3A80               	xorlw	128
  7136     0CCC  00D0               	movwf	??___fladd
  7137     0CCD  084F               	movf	___fladd@a+3,w
  7138     0CCE  3A80               	xorlw	128
  7139     0CCF  0250               	subwf	??___fladd,w
  7140     0CD0  1D03               	skipz
  7141     0CD1  2CDC               	goto	u3533
  7142     0CD2  084E               	movf	___fladd@a+2,w
  7143     0CD3  024A               	subwf	___fladd@b+2,w
  7144     0CD4  1D03               	skipz
  7145     0CD5  2CDC               	goto	u3533
  7146     0CD6  084D               	movf	___fladd@a+1,w
  7147     0CD7  0249               	subwf	___fladd@b+1,w
  7148     0CD8  1D03               	skipz
  7149     0CD9  2CDC               	goto	u3533
  7150     0CDA  084C               	movf	___fladd@a,w
  7151     0CDB  0248               	subwf	___fladd@b,w
  7152     0CDC                     u3533:
  7153     0CDC  1803               	skipnc
  7154     0CDD  2CDF               	goto	u3531
  7155     0CDE  2CE0               	goto	u3530
  7156     0CDF                     u3531:
  7157     0CDF  2D18               	goto	l2928
  7158     0CE0                     u3530:
  7159     0CE0                     l2920:
  7160     0CE0  30FF               	movlw	255
  7161     0CE1  00D0               	movwf	??___fladd
  7162     0CE2  30FF               	movlw	255
  7163     0CE3  00D1               	movwf	??___fladd+1
  7164     0CE4  30FF               	movlw	255
  7165     0CE5  00D2               	movwf	??___fladd+2
  7166     0CE6  30FF               	movlw	255
  7167     0CE7  00D3               	movwf	??___fladd+3
  7168     0CE8  0848               	movf	___fladd@b,w
  7169     0CE9  024C               	subwf	___fladd@a,w
  7170     0CEA  00D4               	movwf	??___fladd+4
  7171     0CEB  0849               	movf	___fladd@b+1,w
  7172     0CEC  3B4D               	subwfb	___fladd@a+1,w
  7173     0CED  00D5               	movwf	??___fladd+5
  7174     0CEE  084A               	movf	___fladd@b+2,w
  7175     0CEF  3B4E               	subwfb	___fladd@a+2,w
  7176     0CF0  00D6               	movwf	??___fladd+6
  7177     0CF1  084B               	movf	___fladd@b+3,w
  7178     0CF2  3B4F               	subwfb	___fladd@a+3,w
  7179     0CF3  00D7               	movwf	??___fladd+7
  7180     0CF4  0854               	movf	??___fladd+4,w
  7181     0CF5  07D0               	addwf	??___fladd,f
  7182     0CF6  0855               	movf	??___fladd+5,w
  7183     0CF7  3DD1               	addwfc	??___fladd+1,f
  7184     0CF8  0856               	movf	??___fladd+6,w
  7185     0CF9  3DD2               	addwfc	??___fladd+2,f
  7186     0CFA  0857               	movf	??___fladd+7,w
  7187     0CFB  3DD3               	addwfc	??___fladd+3,f
  7188     0CFC  0853               	movf	??___fladd+3,w
  7189     0CFD  00CB               	movwf	___fladd@b+3
  7190     0CFE  0852               	movf	??___fladd+2,w
  7191     0CFF  00CA               	movwf	___fladd@b+2
  7192     0D00  0851               	movf	??___fladd+1,w
  7193     0D01  00C9               	movwf	___fladd@b+1
  7194     0D02  0850               	movf	??___fladd,w
  7195     0D03  00C8               	movwf	___fladd@b
  7196     0D04                     l2922:
  7197     0D04  3080               	movlw	128
  7198     0D05  00D0               	movwf	??___fladd
  7199     0D06  0850               	movf	??___fladd,w
  7200     0D07  06D8               	xorwf	___fladd@signs,f
  7201     0D08  09DB               	comf	___fladd@grs,f
  7202     0D09  0ADB               	incf	___fladd@grs,f
  7203     0D0A                     l2924:
  7204     0D0A  085B               	movf	___fladd@grs,w
  7205     0D0B  1D03               	btfss	3,2
  7206     0D0C  2D0E               	goto	u3541
  7207     0D0D  2D0F               	goto	u3540
  7208     0D0E                     u3541:
  7209     0D0E  2D20               	goto	l540
  7210     0D0F                     u3540:
  7211     0D0F                     l2926:
  7212     0D0F  3001               	movlw	1
  7213     0D10  07C8               	addwf	___fladd@b,f
  7214     0D11  3000               	movlw	0
  7215     0D12  3DC9               	addwfc	___fladd@b+1,f
  7216     0D13  3000               	movlw	0
  7217     0D14  3DCA               	addwfc	___fladd@b+2,f
  7218     0D15  3000               	movlw	0
  7219     0D16  3DCB               	addwfc	___fladd@b+3,f
  7220     0D17  2D20               	goto	l540
  7221     0D18                     l2928:
  7222     0D18  084C               	movf	___fladd@a,w
  7223     0D19  02C8               	subwf	___fladd@b,f
  7224     0D1A  084D               	movf	___fladd@a+1,w
  7225     0D1B  3BC9               	subwfb	___fladd@b+1,f
  7226     0D1C  084E               	movf	___fladd@a+2,w
  7227     0D1D  3BCA               	subwfb	___fladd@b+2,f
  7228     0D1E  084F               	movf	___fladd@a+3,w
  7229     0D1F  3BCB               	subwfb	___fladd@b+3,f
  7230     0D20                     l540:
  7231     0D20  084B               	movf	___fladd@b+3,w
  7232     0D21  044A               	iorwf	___fladd@b+2,w
  7233     0D22  0449               	iorwf	___fladd@b+1,w
  7234     0D23  0448               	iorwf	___fladd@b,w
  7235     0D24  1D03               	skipz
  7236     0D25  2D27               	goto	u3551
  7237     0D26  2D28               	goto	u3550
  7238     0D27                     u3551:
  7239     0D27  2D52               	goto	l2950
  7240     0D28                     u3550:
  7241     0D28                     l2930:
  7242     0D28  085B               	movf	___fladd@grs,w
  7243     0D29  1D03               	btfss	3,2
  7244     0D2A  2D2C               	goto	u3561
  7245     0D2B  2D2D               	goto	u3560
  7246     0D2C                     u3561:
  7247     0D2C  2D52               	goto	l2950
  7248     0D2D                     u3560:
  7249     0D2D                     l2932:
  7250     0D2D  3000               	movlw	0
  7251     0D2E  00CB               	movwf	?___fladd+3
  7252     0D2F  3000               	movlw	0
  7253     0D30  00CA               	movwf	?___fladd+2
  7254     0D31  3000               	movlw	0
  7255     0D32  00C9               	movwf	?___fladd+1
  7256     0D33  3000               	movlw	0
  7257     0D34  00C8               	movwf	?___fladd
  7258     0D35  2DC4               	goto	l532
  7259     0D36                     l2936:
  7260     0D36  3001               	movlw	1
  7261     0D37                     u3575:
  7262     0D37  35C8               	lslf	___fladd@b,f
  7263     0D38  0DC9               	rlf	___fladd@b+1,f
  7264     0D39  0DCA               	rlf	___fladd@b+2,f
  7265     0D3A  0DCB               	rlf	___fladd@b+3,f
  7266     0D3B  0B89               	decfsz	9,f
  7267     0D3C  2D37               	goto	u3575
  7268     0D3D                     l2938:
  7269     0D3D  1FDB               	btfss	___fladd@grs,7
  7270     0D3E  2D40               	goto	u3581
  7271     0D3F  2D41               	goto	u3580
  7272     0D40                     u3581:
  7273     0D40  2D42               	goto	l544
  7274     0D41                     u3580:
  7275     0D41                     l2940:
  7276     0D41  1448               	bsf	___fladd@b,0
  7277     0D42                     l544:
  7278     0D42  1C5B               	btfss	___fladd@grs,0
  7279     0D43  2D45               	goto	u3591
  7280     0D44  2D46               	goto	u3590
  7281     0D45                     u3591:
  7282     0D45  2D49               	goto	l2944
  7283     0D46                     u3590:
  7284     0D46                     l2942:
  7285     0D46  1403               	setc
  7286     0D47  0DDB               	rlf	___fladd@grs,f
  7287     0D48  2D4B               	goto	l2946
  7288     0D49                     l2944:
  7289     0D49  1003               	clrc
  7290     0D4A  0DDB               	rlf	___fladd@grs,f
  7291     0D4B                     l2946:
  7292     0D4B  085A               	movf	___fladd@bexp,w
  7293     0D4C  1903               	btfsc	3,2
  7294     0D4D  2D4F               	goto	u3601
  7295     0D4E  2D50               	goto	u3600
  7296     0D4F                     u3601:
  7297     0D4F  2D52               	goto	l2950
  7298     0D50                     u3600:
  7299     0D50                     l2948:
  7300     0D50  3001               	movlw	1
  7301     0D51  02DA               	subwf	___fladd@bexp,f
  7302     0D52                     l2950:
  7303     0D52  1FCA               	btfss	___fladd@b+2,7
  7304     0D53  2D55               	goto	u3611
  7305     0D54  2D56               	goto	u3610
  7306     0D55                     u3611:
  7307     0D55  2D36               	goto	l2936
  7308     0D56                     u3610:
  7309     0D56                     l2952:
  7310     0D56  01D9               	clrf	___fladd@aexp
  7311     0D57                     l2954:
  7312     0D57  1FDB               	btfss	___fladd@grs,7
  7313     0D58  2D5A               	goto	u3621
  7314     0D59  2D5B               	goto	u3620
  7315     0D5A                     u3621:
  7316     0D5A  2D69               	goto	l2962
  7317     0D5B                     u3620:
  7318     0D5B                     l2956:
  7319     0D5B  085B               	movf	___fladd@grs,w
  7320     0D5C  397F               	andlw	127
  7321     0D5D  1903               	btfsc	3,2
  7322     0D5E  2D60               	goto	u3631
  7323     0D5F  2D61               	goto	u3630
  7324     0D60                     u3631:
  7325     0D60  2D64               	goto	l550
  7326     0D61                     u3630:
  7327     0D61                     l2958:
  7328     0D61  01D9               	clrf	___fladd@aexp
  7329     0D62  0AD9               	incf	___fladd@aexp,f
  7330     0D63  2D69               	goto	l2962
  7331     0D64                     l550:
  7332     0D64  1C48               	btfss	___fladd@b,0
  7333     0D65  2D67               	goto	u3641
  7334     0D66  2D68               	goto	u3640
  7335     0D67                     u3641:
  7336     0D67  2D69               	goto	l2962
  7337     0D68                     u3640:
  7338     0D68  2D61               	goto	l2958
  7339     0D69                     l2962:
  7340     0D69  0859               	movf	___fladd@aexp,w
  7341     0D6A  1903               	btfsc	3,2
  7342     0D6B  2D6D               	goto	u3651
  7343     0D6C  2D6E               	goto	u3650
  7344     0D6D                     u3651:
  7345     0D6D  2D9B               	goto	l553
  7346     0D6E                     u3650:
  7347     0D6E                     l2964:
  7348     0D6E  3001               	movlw	1
  7349     0D6F  07C8               	addwf	___fladd@b,f
  7350     0D70  3000               	movlw	0
  7351     0D71  3DC9               	addwfc	___fladd@b+1,f
  7352     0D72  3000               	movlw	0
  7353     0D73  3DCA               	addwfc	___fladd@b+2,f
  7354     0D74  3000               	movlw	0
  7355     0D75  3DCB               	addwfc	___fladd@b+3,f
  7356     0D76                     l2966:
  7357     0D76  1C4B               	btfss	___fladd@b+3,0
  7358     0D77  2D79               	goto	u3661
  7359     0D78  2D7A               	goto	u3660
  7360     0D79                     u3661:
  7361     0D79  2D9B               	goto	l553
  7362     0D7A                     u3660:
  7363     0D7A                     l2968:
  7364     0D7A  0848               	movf	___fladd@b,w
  7365     0D7B  00D0               	movwf	??___fladd
  7366     0D7C  0849               	movf	___fladd@b+1,w
  7367     0D7D  00D1               	movwf	??___fladd+1
  7368     0D7E  084A               	movf	___fladd@b+2,w
  7369     0D7F  00D2               	movwf	??___fladd+2
  7370     0D80  084B               	movf	___fladd@b+3,w
  7371     0D81  00D3               	movwf	??___fladd+3
  7372     0D82  3001               	movlw	1
  7373     0D83  00D4               	movwf	??___fladd+4
  7374     0D84                     u3675:
  7375     0D84  37D3               	asrf	??___fladd+3,f
  7376     0D85  0CD2               	rrf	??___fladd+2,f
  7377     0D86  0CD1               	rrf	??___fladd+1,f
  7378     0D87  0CD0               	rrf	??___fladd,f
  7379     0D88                     u3670:
  7380     0D88  0BD4               	decfsz	??___fladd+4,f
  7381     0D89  2D84               	goto	u3675
  7382     0D8A  0853               	movf	??___fladd+3,w
  7383     0D8B  00CB               	movwf	___fladd@b+3
  7384     0D8C  0852               	movf	??___fladd+2,w
  7385     0D8D  00CA               	movwf	___fladd@b+2
  7386     0D8E  0851               	movf	??___fladd+1,w
  7387     0D8F  00C9               	movwf	___fladd@b+1
  7388     0D90  0850               	movf	??___fladd,w
  7389     0D91  00C8               	movwf	___fladd@b
  7390     0D92  0A5A               	incf	___fladd@bexp,w
  7391     0D93  1903               	btfsc	3,2
  7392     0D94  2D96               	goto	u3681
  7393     0D95  2D97               	goto	u3680
  7394     0D96                     u3681:
  7395     0D96  2D9B               	goto	l553
  7396     0D97                     u3680:
  7397     0D97                     l2970:
  7398     0D97  3001               	movlw	1
  7399     0D98  00D0               	movwf	??___fladd
  7400     0D99  0850               	movf	??___fladd,w
  7401     0D9A  07DA               	addwf	___fladd@bexp,f
  7402     0D9B                     l553:
  7403     0D9B  0A5A               	incf	___fladd@bexp,w
  7404     0D9C  1903               	btfsc	3,2
  7405     0D9D  2D9F               	goto	u3691
  7406     0D9E  2DA0               	goto	u3690
  7407     0D9F                     u3691:
  7408     0D9F  2DA5               	goto	l2974
  7409     0DA0                     u3690:
  7410     0DA0                     l2972:
  7411     0DA0  085A               	movf	___fladd@bexp,w
  7412     0DA1  1D03               	btfss	3,2
  7413     0DA2  2DA4               	goto	u3701
  7414     0DA3  2DA5               	goto	u3700
  7415     0DA4                     u3701:
  7416     0DA4  2DB3               	goto	l2980
  7417     0DA5                     u3700:
  7418     0DA5                     l2974:
  7419     0DA5  3000               	movlw	0
  7420     0DA6  00CB               	movwf	___fladd@b+3
  7421     0DA7  3000               	movlw	0
  7422     0DA8  00CA               	movwf	___fladd@b+2
  7423     0DA9  3000               	movlw	0
  7424     0DAA  00C9               	movwf	___fladd@b+1
  7425     0DAB  3000               	movlw	0
  7426     0DAC  00C8               	movwf	___fladd@b
  7427     0DAD                     l2976:
  7428     0DAD  085A               	movf	___fladd@bexp,w
  7429     0DAE  1D03               	btfss	3,2
  7430     0DAF  2DB1               	goto	u3711
  7431     0DB0  2DB2               	goto	u3710
  7432     0DB1                     u3711:
  7433     0DB1  2DB3               	goto	l2980
  7434     0DB2                     u3710:
  7435     0DB2                     l2978:
  7436     0DB2  01D8               	clrf	___fladd@signs
  7437     0DB3                     l2980:
  7438     0DB3  1C5A               	btfss	___fladd@bexp,0
  7439     0DB4  2DB6               	goto	u3721
  7440     0DB5  2DB7               	goto	u3720
  7441     0DB6                     u3721:
  7442     0DB6  2DB9               	goto	l2984
  7443     0DB7                     u3720:
  7444     0DB7                     l2982:
  7445     0DB7  17CA               	bsf	___fladd@b+2,7
  7446     0DB8  2DBD               	goto	l561
  7447     0DB9                     l2984:
  7448     0DB9  307F               	movlw	127
  7449     0DBA  00D0               	movwf	??___fladd
  7450     0DBB  0850               	movf	??___fladd,w
  7451     0DBC  05CA               	andwf	___fladd@b+2,f
  7452     0DBD                     l561:
  7453     0DBD  365A               	lsrf	___fladd@bexp,w
  7454     0DBE  00CB               	movwf	___fladd@b+3
  7455     0DBF                     l2986:
  7456     0DBF  1FD8               	btfss	___fladd@signs,7
  7457     0DC0  2DC2               	goto	u3731
  7458     0DC1  2DC3               	goto	u3730
  7459     0DC2                     u3731:
  7460     0DC2  2DC4               	goto	l562
  7461     0DC3                     u3730:
  7462     0DC3                     l2988:
  7463     0DC3  17CB               	bsf	___fladd@b+3,7
  7464     0DC4                     l562:
  7465     0DC4                     l532:
  7466     0DC4  0008               	return
  7467     0DC5                     __end_of___fladd:
  7468                           
  7469                           	psect	text14
  7470     084F                     __ptext14:	
  7471 ;; *************** function ___fldiv *****************
  7472 ;; Defined at:
  7473 ;;		line 8 in file "C:\Program Files\Microchip\xc8\v2.40\pic\sources\c99\common\sprcdiv.c"
  7474 ;; Parameters:    Size  Location     Type
  7475 ;;  a               4   40[BANK0 ] unsigned char 
  7476 ;;  b               4   44[BANK0 ] unsigned char 
  7477 ;; Auto vars:     Size  Location     Type
  7478 ;;  grs             4   60[BANK0 ] unsigned long 
  7479 ;;  rem             4   53[BANK0 ] unsigned long 
  7480 ;;  new_exp         2   58[BANK0 ] int 
  7481 ;;  aexp            1   65[BANK0 ] unsigned char 
  7482 ;;  bexp            1   64[BANK0 ] unsigned char 
  7483 ;;  sign            1   57[BANK0 ] unsigned char 
  7484 ;; Return value:  Size  Location     Type
  7485 ;;                  4   40[BANK0 ] unsigned char 
  7486 ;; Registers used:
  7487 ;;		wreg, status,2, status,0
  7488 ;; Tracked objects:
  7489 ;;		On entry : 0/0
  7490 ;;		On exit  : 0/0
  7491 ;;		Unchanged: 0/0
  7492 ;; Data sizes:     COMMON   BANK0   BANK1   BANK2   BANK3   BANK4   BANK5   BANK6   BANK7   BANK8   BANK9  BANK10  BANK1
      +1  BANK12
  7493 ;;      Params:         0       8       0       0       0       0       0       0       0       0       0       0       
      +0       0
  7494 ;;      Locals:         0      13       0       0       0       0       0       0       0       0       0       0       
      +0       0
  7495 ;;      Temps:          0       5       0       0       0       0       0       0       0       0       0       0       
      +0       0
  7496 ;;      Totals:         0      26       0       0       0       0       0       0       0       0       0       0       
      +0       0
  7497 ;;Total ram usage:       26 bytes
  7498 ;; Hardware stack levels used: 1
  7499 ;; Hardware stack levels required when called: 3
  7500 ;; This function calls:
  7501 ;;		Nothing
  7502 ;; This function is called by:
  7503 ;;		_sine_table_gen
  7504 ;; This function uses a non-reentrant model
  7505 ;;
  7506                           
  7507     084F                     ___fldiv:	
  7508                           ;psect for function ___fldiv
  7509                           
  7510     084F                     l3432:	
  7511                           ;incstack = 0
  7512                           ; Regs used in ___fldiv: [wreg+status,2+status,0]
  7513                           
  7514     084F  0020               	movlb	0	; select bank0
  7515     0850  084F               	movf	___fldiv@b+3,w
  7516     0851  3980               	andlw	128
  7517     0852  00D9               	movwf	___fldiv@sign
  7518     0853                     l3434:
  7519     0853  354F               	lslf	___fldiv@b+3,w
  7520     0854  00E0               	movwf	___fldiv@bexp
  7521     0855                     l3436:
  7522     0855  1FCE               	btfss	___fldiv@b+2,7
  7523     0856  2858               	goto	u4471
  7524     0857  2859               	goto	u4470
  7525     0858                     u4471:
  7526     0858  285A               	goto	l3440
  7527     0859                     u4470:
  7528     0859                     l3438:
  7529     0859  1460               	bsf	___fldiv@bexp,0
  7530     085A                     l3440:
  7531     085A  0860               	movf	___fldiv@bexp,w
  7532     085B  1903               	btfsc	3,2
  7533     085C  285E               	goto	u4481
  7534     085D  285F               	goto	u4480
  7535     085E                     u4481:
  7536     085E  286F               	goto	l3450
  7537     085F                     u4480:
  7538     085F                     l3442:
  7539     085F  0A60               	incf	___fldiv@bexp,w
  7540     0860  1D03               	btfss	3,2
  7541     0861  2863               	goto	u4491
  7542     0862  2864               	goto	u4490
  7543     0863                     u4491:
  7544     0863  286C               	goto	l3446
  7545     0864                     u4490:
  7546     0864                     l3444:
  7547     0864  3000               	movlw	0
  7548     0865  00CF               	movwf	___fldiv@b+3
  7549     0866  3000               	movlw	0
  7550     0867  00CE               	movwf	___fldiv@b+2
  7551     0868  3000               	movlw	0
  7552     0869  00CD               	movwf	___fldiv@b+1
  7553     086A  3000               	movlw	0
  7554     086B  00CC               	movwf	___fldiv@b
  7555     086C                     l3446:
  7556     086C  17CE               	bsf	___fldiv@b+2,7
  7557     086D                     l3448:
  7558     086D  01CF               	clrf	___fldiv@b+3
  7559     086E  2877               	goto	l3452
  7560     086F                     l3450:
  7561     086F  3000               	movlw	0
  7562     0870  00CF               	movwf	___fldiv@b+3
  7563     0871  3000               	movlw	0
  7564     0872  00CE               	movwf	___fldiv@b+2
  7565     0873  3000               	movlw	0
  7566     0874  00CD               	movwf	___fldiv@b+1
  7567     0875  3000               	movlw	0
  7568     0876  00CC               	movwf	___fldiv@b
  7569     0877                     l3452:
  7570     0877  084B               	movf	___fldiv@a+3,w
  7571     0878  3980               	andlw	128
  7572     0879  00D0               	movwf	??___fldiv
  7573     087A  0850               	movf	??___fldiv,w
  7574     087B  06D9               	xorwf	___fldiv@sign,f
  7575     087C                     l3454:
  7576     087C  354B               	lslf	___fldiv@a+3,w
  7577     087D  00E1               	movwf	___fldiv@aexp
  7578     087E                     l3456:
  7579     087E  1FCA               	btfss	___fldiv@a+2,7
  7580     087F  2881               	goto	u4501
  7581     0880  2882               	goto	u4500
  7582     0881                     u4501:
  7583     0881  2883               	goto	l3460
  7584     0882                     u4500:
  7585     0882                     l3458:
  7586     0882  1461               	bsf	___fldiv@aexp,0
  7587     0883                     l3460:
  7588     0883  0861               	movf	___fldiv@aexp,w
  7589     0884  1903               	btfsc	3,2
  7590     0885  2887               	goto	u4511
  7591     0886  2888               	goto	u4510
  7592     0887                     u4511:
  7593     0887  2898               	goto	l3470
  7594     0888                     u4510:
  7595     0888                     l3462:
  7596     0888  0A61               	incf	___fldiv@aexp,w
  7597     0889  1D03               	btfss	3,2
  7598     088A  288C               	goto	u4521
  7599     088B  288D               	goto	u4520
  7600     088C                     u4521:
  7601     088C  2895               	goto	l3466
  7602     088D                     u4520:
  7603     088D                     l3464:
  7604     088D  3000               	movlw	0
  7605     088E  00CB               	movwf	___fldiv@a+3
  7606     088F  3000               	movlw	0
  7607     0890  00CA               	movwf	___fldiv@a+2
  7608     0891  3000               	movlw	0
  7609     0892  00C9               	movwf	___fldiv@a+1
  7610     0893  3000               	movlw	0
  7611     0894  00C8               	movwf	___fldiv@a
  7612     0895                     l3466:
  7613     0895  17CA               	bsf	___fldiv@a+2,7
  7614     0896                     l3468:
  7615     0896  01CB               	clrf	___fldiv@a+3
  7616     0897  28A0               	goto	l575
  7617     0898                     l3470:
  7618     0898  3000               	movlw	0
  7619     0899  00CB               	movwf	___fldiv@a+3
  7620     089A  3000               	movlw	0
  7621     089B  00CA               	movwf	___fldiv@a+2
  7622     089C  3000               	movlw	0
  7623     089D  00C9               	movwf	___fldiv@a+1
  7624     089E  3000               	movlw	0
  7625     089F  00C8               	movwf	___fldiv@a
  7626     08A0                     l575:
  7627     08A0  084B               	movf	___fldiv@a+3,w
  7628     08A1  044A               	iorwf	___fldiv@a+2,w
  7629     08A2  0449               	iorwf	___fldiv@a+1,w
  7630     08A3  0448               	iorwf	___fldiv@a,w
  7631     08A4  1D03               	skipz
  7632     08A5  28A7               	goto	u4531
  7633     08A6  28A8               	goto	u4530
  7634     08A7                     u4531:
  7635     08A7  28C1               	goto	l3480
  7636     08A8                     u4530:
  7637     08A8                     l3472:
  7638     08A8  3000               	movlw	0
  7639     08A9  00CF               	movwf	___fldiv@b+3
  7640     08AA  3000               	movlw	0
  7641     08AB  00CE               	movwf	___fldiv@b+2
  7642     08AC  3000               	movlw	0
  7643     08AD  00CD               	movwf	___fldiv@b+1
  7644     08AE  3000               	movlw	0
  7645     08AF  00CC               	movwf	___fldiv@b
  7646     08B0  3080               	movlw	128
  7647     08B1  04CE               	iorwf	___fldiv@b+2,f
  7648     08B2  307F               	movlw	127
  7649     08B3  04CF               	iorwf	___fldiv@b+3,f
  7650     08B4                     l3474:
  7651     08B4  0859               	movf	___fldiv@sign,w
  7652     08B5  00D0               	movwf	??___fldiv
  7653     08B6  0850               	movf	??___fldiv,w
  7654     08B7  04CF               	iorwf	___fldiv@b+3,f
  7655     08B8                     l3476:
  7656     08B8  084F               	movf	___fldiv@b+3,w
  7657     08B9  00CB               	movwf	?___fldiv+3
  7658     08BA  084E               	movf	___fldiv@b+2,w
  7659     08BB  00CA               	movwf	?___fldiv+2
  7660     08BC  084D               	movf	___fldiv@b+1,w
  7661     08BD  00C9               	movwf	?___fldiv+1
  7662     08BE  084C               	movf	___fldiv@b,w
  7663     08BF  00C8               	movwf	?___fldiv
  7664     08C0  29F8               	goto	l577
  7665     08C1                     l3480:
  7666     08C1  0860               	movf	___fldiv@bexp,w
  7667     08C2  1D03               	btfss	3,2
  7668     08C3  28C5               	goto	u4541
  7669     08C4  28C6               	goto	u4540
  7670     08C5                     u4541:
  7671     08C5  28CF               	goto	l3486
  7672     08C6                     u4540:
  7673     08C6                     l3482:
  7674     08C6  3000               	movlw	0
  7675     08C7  00CB               	movwf	?___fldiv+3
  7676     08C8  3000               	movlw	0
  7677     08C9  00CA               	movwf	?___fldiv+2
  7678     08CA  3000               	movlw	0
  7679     08CB  00C9               	movwf	?___fldiv+1
  7680     08CC  3000               	movlw	0
  7681     08CD  00C8               	movwf	?___fldiv
  7682     08CE  29F8               	goto	l577
  7683     08CF                     l3486:
  7684     08CF  0860               	movf	___fldiv@bexp,w
  7685     08D0  00D0               	movwf	??___fldiv
  7686     08D1  01D1               	clrf	??___fldiv+1
  7687     08D2  0851               	movf	??___fldiv+1,w
  7688     08D3  00D3               	movwf	??___fldiv+3
  7689     08D4  0861               	movf	___fldiv@aexp,w
  7690     08D5  0250               	subwf	??___fldiv,w
  7691     08D6  00D2               	movwf	??___fldiv+2
  7692     08D7  1C03               	skipc
  7693     08D8  03D3               	decf	??___fldiv+3,f
  7694     08D9  0852               	movf	??___fldiv+2,w
  7695     08DA  3E7F               	addlw	127
  7696     08DB  00DA               	movwf	___fldiv@new_exp
  7697     08DC  3000               	movlw	0
  7698     08DD  3D53               	addwfc	??___fldiv+3,w
  7699     08DE  00DB               	movwf	___fldiv@new_exp+1
  7700     08DF                     l3488:
  7701     08DF  084F               	movf	___fldiv@b+3,w
  7702     08E0  00D8               	movwf	___fldiv@rem+3
  7703     08E1  084E               	movf	___fldiv@b+2,w
  7704     08E2  00D7               	movwf	___fldiv@rem+2
  7705     08E3  084D               	movf	___fldiv@b+1,w
  7706     08E4  00D6               	movwf	___fldiv@rem+1
  7707     08E5  084C               	movf	___fldiv@b,w
  7708     08E6  00D5               	movwf	___fldiv@rem
  7709     08E7                     l3490:
  7710     08E7  3000               	movlw	0
  7711     08E8  00CF               	movwf	___fldiv@b+3
  7712     08E9  3000               	movlw	0
  7713     08EA  00CE               	movwf	___fldiv@b+2
  7714     08EB  3000               	movlw	0
  7715     08EC  00CD               	movwf	___fldiv@b+1
  7716     08ED  3000               	movlw	0
  7717     08EE  00CC               	movwf	___fldiv@b
  7718     08EF                     l3492:
  7719     08EF  3000               	movlw	0
  7720     08F0  00DF               	movwf	___fldiv@grs+3
  7721     08F1  3000               	movlw	0
  7722     08F2  00DE               	movwf	___fldiv@grs+2
  7723     08F3  3000               	movlw	0
  7724     08F4  00DD               	movwf	___fldiv@grs+1
  7725     08F5  3000               	movlw	0
  7726     08F6  00DC               	movwf	___fldiv@grs
  7727     08F7                     l3494:
  7728     08F7  01E1               	clrf	___fldiv@aexp
  7729     08F8  2937               	goto	l3514
  7730     08F9                     l3496:
  7731     08F9  0861               	movf	___fldiv@aexp,w
  7732     08FA  1903               	btfsc	3,2
  7733     08FB  28FD               	goto	u4551
  7734     08FC  28FE               	goto	u4550
  7735     08FD                     u4551:
  7736     08FD  2918               	goto	l3506
  7737     08FE                     u4550:
  7738     08FE                     l3498:
  7739     08FE  3001               	movlw	1
  7740     08FF                     u4565:
  7741     08FF  35D5               	lslf	___fldiv@rem,f
  7742     0900  0DD6               	rlf	___fldiv@rem+1,f
  7743     0901  0DD7               	rlf	___fldiv@rem+2,f
  7744     0902  0DD8               	rlf	___fldiv@rem+3,f
  7745     0903  0B89               	decfsz	9,f
  7746     0904  28FF               	goto	u4565
  7747     0905  3001               	movlw	1
  7748     0906                     u4575:
  7749     0906  35CC               	lslf	___fldiv@b,f
  7750     0907  0DCD               	rlf	___fldiv@b+1,f
  7751     0908  0DCE               	rlf	___fldiv@b+2,f
  7752     0909  0DCF               	rlf	___fldiv@b+3,f
  7753     090A  0B89               	decfsz	9,f
  7754     090B  2906               	goto	u4575
  7755     090C                     l3500:
  7756     090C  1FDF               	btfss	___fldiv@grs+3,7
  7757     090D  290F               	goto	u4581
  7758     090E  2910               	goto	u4580
  7759     090F                     u4581:
  7760     090F  2911               	goto	l3504
  7761     0910                     u4580:
  7762     0910                     l3502:
  7763     0910  144C               	bsf	___fldiv@b,0
  7764     0911                     l3504:
  7765     0911  3001               	movlw	1
  7766     0912                     u4595:
  7767     0912  35DC               	lslf	___fldiv@grs,f
  7768     0913  0DDD               	rlf	___fldiv@grs+1,f
  7769     0914  0DDE               	rlf	___fldiv@grs+2,f
  7770     0915  0DDF               	rlf	___fldiv@grs+3,f
  7771     0916  0B89               	decfsz	9,f
  7772     0917  2912               	goto	u4595
  7773     0918                     l3506:
  7774     0918  084B               	movf	___fldiv@a+3,w
  7775     0919  0258               	subwf	___fldiv@rem+3,w
  7776     091A  1D03               	skipz
  7777     091B  2926               	goto	u4605
  7778     091C  084A               	movf	___fldiv@a+2,w
  7779     091D  0257               	subwf	___fldiv@rem+2,w
  7780     091E  1D03               	skipz
  7781     091F  2926               	goto	u4605
  7782     0920  0849               	movf	___fldiv@a+1,w
  7783     0921  0256               	subwf	___fldiv@rem+1,w
  7784     0922  1D03               	skipz
  7785     0923  2926               	goto	u4605
  7786     0924  0848               	movf	___fldiv@a,w
  7787     0925  0255               	subwf	___fldiv@rem,w
  7788     0926                     u4605:
  7789     0926  1C03               	skipc
  7790     0927  2929               	goto	u4601
  7791     0928  292A               	goto	u4600
  7792     0929                     u4601:
  7793     0929  2933               	goto	l3512
  7794     092A                     u4600:
  7795     092A                     l3508:
  7796     092A  175F               	bsf	___fldiv@grs+3,6
  7797     092B                     l3510:
  7798     092B  0848               	movf	___fldiv@a,w
  7799     092C  02D5               	subwf	___fldiv@rem,f
  7800     092D  0849               	movf	___fldiv@a+1,w
  7801     092E  3BD6               	subwfb	___fldiv@rem+1,f
  7802     092F  084A               	movf	___fldiv@a+2,w
  7803     0930  3BD7               	subwfb	___fldiv@rem+2,f
  7804     0931  084B               	movf	___fldiv@a+3,w
  7805     0932  3BD8               	subwfb	___fldiv@rem+3,f
  7806     0933                     l3512:
  7807     0933  3001               	movlw	1
  7808     0934  00D0               	movwf	??___fldiv
  7809     0935  0850               	movf	??___fldiv,w
  7810     0936  07E1               	addwf	___fldiv@aexp,f
  7811     0937                     l3514:
  7812     0937  301A               	movlw	26
  7813     0938  0261               	subwf	___fldiv@aexp,w
  7814     0939  1C03               	skipc
  7815     093A  293C               	goto	u4611
  7816     093B  293D               	goto	u4610
  7817     093C                     u4611:
  7818     093C  28F9               	goto	l3496
  7819     093D                     u4610:
  7820     093D                     l3516:
  7821     093D  0858               	movf	___fldiv@rem+3,w
  7822     093E  0457               	iorwf	___fldiv@rem+2,w
  7823     093F  0456               	iorwf	___fldiv@rem+1,w
  7824     0940  0455               	iorwf	___fldiv@rem,w
  7825     0941  1903               	skipnz
  7826     0942  2944               	goto	u4621
  7827     0943  2945               	goto	u4620
  7828     0944                     u4621:
  7829     0944  295E               	goto	l3530
  7830     0945                     u4620:
  7831     0945                     l3518:
  7832     0945  145C               	bsf	___fldiv@grs,0
  7833     0946  295E               	goto	l3530
  7834     0947                     l3520:
  7835     0947  3001               	movlw	1
  7836     0948                     u4635:
  7837     0948  35CC               	lslf	___fldiv@b,f
  7838     0949  0DCD               	rlf	___fldiv@b+1,f
  7839     094A  0DCE               	rlf	___fldiv@b+2,f
  7840     094B  0DCF               	rlf	___fldiv@b+3,f
  7841     094C  0B89               	decfsz	9,f
  7842     094D  2948               	goto	u4635
  7843     094E                     l3522:
  7844     094E  1FDF               	btfss	___fldiv@grs+3,7
  7845     094F  2951               	goto	u4641
  7846     0950  2952               	goto	u4640
  7847     0951                     u4641:
  7848     0951  2953               	goto	l3526
  7849     0952                     u4640:
  7850     0952                     l3524:
  7851     0952  144C               	bsf	___fldiv@b,0
  7852     0953                     l3526:
  7853     0953  3001               	movlw	1
  7854     0954                     u4655:
  7855     0954  35DC               	lslf	___fldiv@grs,f
  7856     0955  0DDD               	rlf	___fldiv@grs+1,f
  7857     0956  0DDE               	rlf	___fldiv@grs+2,f
  7858     0957  0DDF               	rlf	___fldiv@grs+3,f
  7859     0958  0B89               	decfsz	9,f
  7860     0959  2954               	goto	u4655
  7861     095A                     l3528:
  7862     095A  30FF               	movlw	255
  7863     095B  07DA               	addwf	___fldiv@new_exp,f
  7864     095C  30FF               	movlw	255
  7865     095D  3DDB               	addwfc	___fldiv@new_exp+1,f
  7866     095E                     l3530:
  7867     095E  1FCE               	btfss	___fldiv@b+2,7
  7868     095F  2961               	goto	u4661
  7869     0960  2962               	goto	u4660
  7870     0961                     u4661:
  7871     0961  2947               	goto	l3520
  7872     0962                     u4660:
  7873     0962                     l3532:
  7874     0962  01E1               	clrf	___fldiv@aexp
  7875     0963                     l3534:
  7876     0963  1FDF               	btfss	___fldiv@grs+3,7
  7877     0964  2966               	goto	u4671
  7878     0965  2967               	goto	u4670
  7879     0966                     u4671:
  7880     0966  2983               	goto	l3542
  7881     0967                     u4670:
  7882     0967                     l3536:
  7883     0967  30FF               	movlw	255
  7884     0968  055C               	andwf	___fldiv@grs,w
  7885     0969  00D0               	movwf	??___fldiv
  7886     096A  30FF               	movlw	255
  7887     096B  055D               	andwf	___fldiv@grs+1,w
  7888     096C  00D1               	movwf	??___fldiv+1
  7889     096D  30FF               	movlw	255
  7890     096E  055E               	andwf	___fldiv@grs+2,w
  7891     096F  00D2               	movwf	??___fldiv+2
  7892     0970  307F               	movlw	127
  7893     0971  055F               	andwf	___fldiv@grs+3,w
  7894     0972  00D3               	movwf	??___fldiv+3
  7895     0973  0853               	movf	??___fldiv+3,w
  7896     0974  0452               	iorwf	??___fldiv+2,w
  7897     0975  0451               	iorwf	??___fldiv+1,w
  7898     0976  0450               	iorwf	??___fldiv,w
  7899     0977  1903               	skipnz
  7900     0978  297A               	goto	u4681
  7901     0979  297B               	goto	u4680
  7902     097A                     u4681:
  7903     097A  297E               	goto	l591
  7904     097B                     u4680:
  7905     097B                     l3538:
  7906     097B  01E1               	clrf	___fldiv@aexp
  7907     097C  0AE1               	incf	___fldiv@aexp,f
  7908     097D  2983               	goto	l3542
  7909     097E                     l591:
  7910     097E  1C4C               	btfss	___fldiv@b,0
  7911     097F  2981               	goto	u4691
  7912     0980  2982               	goto	u4690
  7913     0981                     u4691:
  7914     0981  2983               	goto	l3542
  7915     0982                     u4690:
  7916     0982  297B               	goto	l3538
  7917     0983                     l3542:
  7918     0983  0861               	movf	___fldiv@aexp,w
  7919     0984  1903               	btfsc	3,2
  7920     0985  2987               	goto	u4701
  7921     0986  2988               	goto	u4700
  7922     0987                     u4701:
  7923     0987  29B0               	goto	l3552
  7924     0988                     u4700:
  7925     0988                     l3544:
  7926     0988  3001               	movlw	1
  7927     0989  07CC               	addwf	___fldiv@b,f
  7928     098A  3000               	movlw	0
  7929     098B  3DCD               	addwfc	___fldiv@b+1,f
  7930     098C  3000               	movlw	0
  7931     098D  3DCE               	addwfc	___fldiv@b+2,f
  7932     098E  3000               	movlw	0
  7933     098F  3DCF               	addwfc	___fldiv@b+3,f
  7934     0990                     l3546:
  7935     0990  1C4F               	btfss	___fldiv@b+3,0
  7936     0991  2993               	goto	u4711
  7937     0992  2994               	goto	u4710
  7938     0993                     u4711:
  7939     0993  29B0               	goto	l3552
  7940     0994                     u4710:
  7941     0994                     l3548:
  7942     0994  084C               	movf	___fldiv@b,w
  7943     0995  00D0               	movwf	??___fldiv
  7944     0996  084D               	movf	___fldiv@b+1,w
  7945     0997  00D1               	movwf	??___fldiv+1
  7946     0998  084E               	movf	___fldiv@b+2,w
  7947     0999  00D2               	movwf	??___fldiv+2
  7948     099A  084F               	movf	___fldiv@b+3,w
  7949     099B  00D3               	movwf	??___fldiv+3
  7950     099C  3001               	movlw	1
  7951     099D  00D4               	movwf	??___fldiv+4
  7952     099E                     u4725:
  7953     099E  37D3               	asrf	??___fldiv+3,f
  7954     099F  0CD2               	rrf	??___fldiv+2,f
  7955     09A0  0CD1               	rrf	??___fldiv+1,f
  7956     09A1  0CD0               	rrf	??___fldiv,f
  7957     09A2                     u4720:
  7958     09A2  0BD4               	decfsz	??___fldiv+4,f
  7959     09A3  299E               	goto	u4725
  7960     09A4  0853               	movf	??___fldiv+3,w
  7961     09A5  00CF               	movwf	___fldiv@b+3
  7962     09A6  0852               	movf	??___fldiv+2,w
  7963     09A7  00CE               	movwf	___fldiv@b+2
  7964     09A8  0851               	movf	??___fldiv+1,w
  7965     09A9  00CD               	movwf	___fldiv@b+1
  7966     09AA  0850               	movf	??___fldiv,w
  7967     09AB  00CC               	movwf	___fldiv@b
  7968     09AC                     l3550:
  7969     09AC  3001               	movlw	1
  7970     09AD  07DA               	addwf	___fldiv@new_exp,f
  7971     09AE  3000               	movlw	0
  7972     09AF  3DDB               	addwfc	___fldiv@new_exp+1,f
  7973     09B0                     l3552:
  7974     09B0  085B               	movf	___fldiv@new_exp+1,w
  7975     09B1  3A80               	xorlw	128
  7976     09B2  00D0               	movwf	??___fldiv
  7977     09B3  3080               	movlw	128
  7978     09B4  0250               	subwf	??___fldiv,w
  7979     09B5  1D03               	skipz
  7980     09B6  29B9               	goto	u4735
  7981     09B7  30FF               	movlw	255
  7982     09B8  025A               	subwf	___fldiv@new_exp,w
  7983     09B9                     u4735:
  7984     09B9  1C03               	skipc
  7985     09BA  29BC               	goto	u4731
  7986     09BB  29BD               	goto	u4730
  7987     09BC                     u4731:
  7988     09BC  29CA               	goto	l596
  7989     09BD                     u4730:
  7990     09BD                     l3554:
  7991     09BD  30FF               	movlw	255
  7992     09BE  0020               	movlb	0	; select bank0
  7993     09BF  00DA               	movwf	___fldiv@new_exp
  7994     09C0  3000               	movlw	0
  7995     09C1  00DB               	movwf	___fldiv@new_exp+1
  7996     09C2  3000               	movlw	0
  7997     09C3  00CF               	movwf	___fldiv@b+3
  7998     09C4  3000               	movlw	0
  7999     09C5  00CE               	movwf	___fldiv@b+2
  8000     09C6  3000               	movlw	0
  8001     09C7  00CD               	movwf	___fldiv@b+1
  8002     09C8  3000               	movlw	0
  8003     09C9  00CC               	movwf	___fldiv@b
  8004     09CA                     l596:
  8005     09CA  0020               	movlb	0	; select bank0
  8006     09CB  085B               	movf	___fldiv@new_exp+1,w
  8007     09CC  3A80               	xorlw	128
  8008     09CD  00D0               	movwf	??___fldiv
  8009     09CE  3080               	movlw	128
  8010     09CF  0250               	subwf	??___fldiv,w
  8011     09D0  1D03               	skipz
  8012     09D1  29D4               	goto	u4745
  8013     09D2  3001               	movlw	1
  8014     09D3  025A               	subwf	___fldiv@new_exp,w
  8015     09D4                     u4745:
  8016     09D4  1803               	skipnc
  8017     09D5  29D7               	goto	u4741
  8018     09D6  29D8               	goto	u4740
  8019     09D7                     u4741:
  8020     09D7  29E4               	goto	l597
  8021     09D8                     u4740:
  8022     09D8                     l3556:
  8023     09D8  0020               	movlb	0	; select bank0
  8024     09D9  01DA               	clrf	___fldiv@new_exp
  8025     09DA  01DB               	clrf	___fldiv@new_exp+1
  8026     09DB                     l3558:
  8027     09DB  3000               	movlw	0
  8028     09DC  00CF               	movwf	___fldiv@b+3
  8029     09DD  3000               	movlw	0
  8030     09DE  00CE               	movwf	___fldiv@b+2
  8031     09DF  3000               	movlw	0
  8032     09E0  00CD               	movwf	___fldiv@b+1
  8033     09E1  3000               	movlw	0
  8034     09E2  00CC               	movwf	___fldiv@b
  8035     09E3                     l3560:
  8036     09E3  01D9               	clrf	___fldiv@sign
  8037     09E4                     l597:
  8038     09E4  0020               	movlb	0	; select bank0
  8039     09E5  085A               	movf	___fldiv@new_exp,w
  8040     09E6  00E0               	movwf	___fldiv@bexp
  8041     09E7                     l3562:
  8042     09E7  1C60               	btfss	___fldiv@bexp,0
  8043     09E8  29EA               	goto	u4751
  8044     09E9  29EB               	goto	u4750
  8045     09EA                     u4751:
  8046     09EA  29ED               	goto	l3566
  8047     09EB                     u4750:
  8048     09EB                     l3564:
  8049     09EB  17CE               	bsf	___fldiv@b+2,7
  8050     09EC  29F1               	goto	l599
  8051     09ED                     l3566:
  8052     09ED  307F               	movlw	127
  8053     09EE  00D0               	movwf	??___fldiv
  8054     09EF  0850               	movf	??___fldiv,w
  8055     09F0  05CE               	andwf	___fldiv@b+2,f
  8056     09F1                     l599:
  8057     09F1  3660               	lsrf	___fldiv@bexp,w
  8058     09F2  00CF               	movwf	___fldiv@b+3
  8059     09F3  0859               	movf	___fldiv@sign,w
  8060     09F4  00D0               	movwf	??___fldiv
  8061     09F5  0850               	movf	??___fldiv,w
  8062     09F6  04CF               	iorwf	___fldiv@b+3,f
  8063     09F7  28B8               	goto	l3476
  8064     09F8                     l577:
  8065     09F8  0008               	return
  8066     09F9                     __end_of___fldiv:
  8067                           
  8068                           	psect	text15
  8069     129E                     __ptext15:	
  8070 ;; *************** function _lcd_puts *****************
  8071 ;; Defined at:
  8072 ;;		line 100 in file "myLCD_SC1602.c"
  8073 ;; Parameters:    Size  Location     Type
  8074 ;;  s               2    5[BANK0 ] PTR const unsigned char 
  8075 ;;		 -> STR_1(13), 
  8076 ;; Auto vars:     Size  Location     Type
  8077 ;;		None
  8078 ;; Return value:  Size  Location     Type
  8079 ;;                  1    wreg      void 
  8080 ;; Registers used:
  8081 ;;		wreg, fsr0l, fsr0h, status,2, status,0, pclath, cstack
  8082 ;; Tracked objects:
  8083 ;;		On entry : 0/0
  8084 ;;		On exit  : 0/0
  8085 ;;		Unchanged: 0/0
  8086 ;; Data sizes:     COMMON   BANK0   BANK1   BANK2   BANK3   BANK4   BANK5   BANK6   BANK7   BANK8   BANK9  BANK10  BANK1
      +1  BANK12
  8087 ;;      Params:         0       2       0       0       0       0       0       0       0       0       0       0       
      +0       0
  8088 ;;      Locals:         0       0       0       0       0       0       0       0       0       0       0       0       
      +0       0
  8089 ;;      Temps:          0       1       0       0       0       0       0       0       0       0       0       0       
      +0       0
  8090 ;;      Totals:         0       3       0       0       0       0       0       0       0       0       0       0       
      +0       0
  8091 ;;Total ram usage:        3 bytes
  8092 ;; Hardware stack levels used: 1
  8093 ;; Hardware stack levels required when called: 7
  8094 ;; This function calls:
  8095 ;;		_LCD_RS
  8096 ;;		_lcd_putch
  8097 ;; This function is called by:
  8098 ;;		_main
  8099 ;; This function uses a non-reentrant model
  8100 ;;
  8101                           
  8102     129E                     _lcd_puts:	
  8103                           ;psect for function _lcd_puts
  8104                           
  8105     129E                     l3618:	
  8106                           ;incstack = 0
  8107                           ; Regs used in _lcd_puts: [wreg-fsr0h+status,2+status,0+pclath+cstack]
  8108                           
  8109                           
  8110                           ;myLCD_SC1602.c: 101:     LCD_RS(1);
  8111     129E  3001               	movlw	1
  8112     129F  3192  2250  3192   	fcall	_LCD_RS
  8113                           
  8114                           ;myLCD_SC1602.c: 102:     while(*s){
  8115     12A2  2AB0               	goto	l3624
  8116     12A3                     l3620:
  8117                           
  8118                           ;myLCD_SC1602.c: 103:         lcd_putch(*s++);
  8119     12A3  0825               	movf	lcd_puts@s,w
  8120     12A4  0084               	movwf	4
  8121     12A5  0826               	movf	lcd_puts@s+1,w
  8122     12A6  0085               	movwf	5
  8123     12A7  0800               	movf	0,w	;code access
  8124     12A8  3187  27EF  3192   	fcall	_lcd_putch
  8125     12AB                     l3622:
  8126     12AB  3001               	movlw	1
  8127     12AC  0020               	movlb	0	; select bank0
  8128     12AD  07A5               	addwf	lcd_puts@s,f
  8129     12AE  3000               	movlw	0
  8130     12AF  3DA6               	addwfc	lcd_puts@s+1,f
  8131     12B0                     l3624:
  8132                           
  8133                           ;myLCD_SC1602.c: 102:     while(*s){
  8134     12B0  0020               	movlb	0	; select bank0
  8135     12B1  0825               	movf	lcd_puts@s,w
  8136     12B2  0084               	movwf	4
  8137     12B3  0826               	movf	lcd_puts@s+1,w
  8138     12B4  0085               	movwf	5
  8139     12B5  0012               	moviw fsr0++
  8140     12B6  1D03               	btfss	3,2
  8141     12B7  2AB9               	goto	u4771
  8142     12B8  2ABA               	goto	u4770
  8143     12B9                     u4771:
  8144     12B9  2AA3               	goto	l3620
  8145     12BA                     u4770:
  8146     12BA                     l147:
  8147     12BA  0008               	return
  8148     12BB                     __end_of_lcd_puts:
  8149                           
  8150                           	psect	text16
  8151     07EF                     __ptext16:	
  8152 ;; *************** function _lcd_putch *****************
  8153 ;; Defined at:
  8154 ;;		line 60 in file "myLCD_SC1602.c"
  8155 ;; Parameters:    Size  Location     Type
  8156 ;;  c               1    wreg     unsigned char 
  8157 ;; Auto vars:     Size  Location     Type
  8158 ;;  c               1    4[BANK0 ] unsigned char 
  8159 ;; Return value:  Size  Location     Type
  8160 ;;                  1    wreg      void 
  8161 ;; Registers used:
  8162 ;;		wreg, status,2, status,0, pclath, cstack
  8163 ;; Tracked objects:
  8164 ;;		On entry : 0/0
  8165 ;;		On exit  : 0/0
  8166 ;;		Unchanged: 0/0
  8167 ;; Data sizes:     COMMON   BANK0   BANK1   BANK2   BANK3   BANK4   BANK5   BANK6   BANK7   BANK8   BANK9  BANK10  BANK1
      +1  BANK12
  8168 ;;      Params:         0       0       0       0       0       0       0       0       0       0       0       0       
      +0       0
  8169 ;;      Locals:         0       1       0       0       0       0       0       0       0       0       0       0       
      +0       0
  8170 ;;      Temps:          0       0       0       0       0       0       0       0       0       0       0       0       
      +0       0
  8171 ;;      Totals:         0       1       0       0       0       0       0       0       0       0       0       0       
      +0       0
  8172 ;;Total ram usage:        1 bytes
  8173 ;; Hardware stack levels used: 1
  8174 ;; Hardware stack levels required when called: 6
  8175 ;; This function calls:
  8176 ;;		_LCD_RS
  8177 ;;		_lcd_data_set
  8178 ;; This function is called by:
  8179 ;;		_lcd_puts
  8180 ;; This function uses a non-reentrant model
  8181 ;;
  8182                           
  8183     07EF                     _lcd_putch:	
  8184                           ;psect for function _lcd_putch
  8185                           
  8186                           
  8187                           ;incstack = 0
  8188                           ; Regs used in _lcd_putch: [wreg+status,2+status,0+pclath+cstack]
  8189                           ;lcd_putch@c stored from wreg
  8190     07EF  0020               	movlb	0	; select bank0
  8191     07F0  00A4               	movwf	lcd_putch@c
  8192     07F1                     l3428:
  8193                           
  8194                           ;myLCD_SC1602.c: 61:     LCD_RS(1);
  8195     07F1  3001               	movlw	1
  8196     07F2  3192  2250  3187   	fcall	_LCD_RS
  8197                           
  8198                           ;myLCD_SC1602.c: 62:     lcd_data_set(c);
  8199     07F5  0020               	movlb	0	; select bank0
  8200     07F6  0824               	movf	lcd_putch@c,w
  8201     07F7  3192  22BB  3187   	fcall	_lcd_data_set
  8202     07FA                     l3430:
  8203                           
  8204                           ;myLCD_SC1602.c: 63:     _delay((unsigned long)((40)*(32000000/4000000.0)));
  8205     07FA  306A               	movlw	106
  8206     07FB                     u4877:
  8207     07FB  0B89               	decfsz	9,f
  8208     07FC  2FFB               	goto	u4877
  8209     07FD  3200               	nop2
  8210     07FE                     l135:
  8211     07FE  0008               	return
  8212     07FF                     __end_of_lcd_putch:
  8213                           
  8214                           	psect	text17
  8215     147D                     __ptext17:	
  8216 ;; *************** function _lcd_init *****************
  8217 ;; Defined at:
  8218 ;;		line 67 in file "myLCD_SC1602.c"
  8219 ;; Parameters:    Size  Location     Type
  8220 ;;		None
  8221 ;; Auto vars:     Size  Location     Type
  8222 ;;		None
  8223 ;; Return value:  Size  Location     Type
  8224 ;;                  1    wreg      void 
  8225 ;; Registers used:
  8226 ;;		wreg, status,2, status,0, pclath, cstack
  8227 ;; Tracked objects:
  8228 ;;		On entry : 0/0
  8229 ;;		On exit  : 0/0
  8230 ;;		Unchanged: 0/0
  8231 ;; Data sizes:     COMMON   BANK0   BANK1   BANK2   BANK3   BANK4   BANK5   BANK6   BANK7   BANK8   BANK9  BANK10  BANK1
      +1  BANK12
  8232 ;;      Params:         0       0       0       0       0       0       0       0       0       0       0       0       
      +0       0
  8233 ;;      Locals:         0       0       0       0       0       0       0       0       0       0       0       0       
      +0       0
  8234 ;;      Temps:          0       1       0       0       0       0       0       0       0       0       0       0       
      +0       0
  8235 ;;      Totals:         0       1       0       0       0       0       0       0       0       0       0       0       
      +0       0
  8236 ;;Total ram usage:        1 bytes
  8237 ;; Hardware stack levels used: 1
  8238 ;; Hardware stack levels required when called: 6
  8239 ;; This function calls:
  8240 ;;		_LCD_RS
  8241 ;;		_lcd_data_byteset
  8242 ;;		_lcd_data_set
  8243 ;; This function is called by:
  8244 ;;		_main
  8245 ;; This function uses a non-reentrant model
  8246 ;;
  8247                           
  8248     147D                     _lcd_init:	
  8249                           ;psect for function _lcd_init
  8250                           
  8251     147D                     l3572:	
  8252                           ;incstack = 0
  8253                           ; Regs used in _lcd_init: [wreg+status,2+status,0+pclath+cstack]
  8254                           
  8255                           
  8256                           ;myLCD_SC1602.c: 68:     LCD_RS(0);
  8257     147D  3000               	movlw	0
  8258     147E  3192  2250  3194   	fcall	_LCD_RS
  8259     1481                     l3574:
  8260                           
  8261                           ;myLCD_SC1602.c: 69:     _delay((unsigned long)((15)*(32000000/4000.0)));
  8262     1481  309C               	movlw	156
  8263     1482  0020               	movlb	0	; select bank0
  8264     1483  00A4               	movwf	??_lcd_init
  8265     1484  30D7               	movlw	215
  8266     1485                     u4887:
  8267     1485  0B89               	decfsz	9,f
  8268     1486  2C85               	goto	u4887
  8269     1487  0BA4               	decfsz	??_lcd_init,f
  8270     1488  2C85               	goto	u4887
  8271     1489                     l3576:
  8272                           
  8273                           ;myLCD_SC1602.c: 71:     _delay((unsigned long)((20)*(32000000/4000.0)));
  8274     1489  30D0               	movlw	208
  8275     148A  0020               	movlb	0	; select bank0
  8276     148B  00A4               	movwf	??_lcd_init
  8277     148C  30C9               	movlw	201
  8278     148D                     u4897:
  8279     148D  0B89               	decfsz	9,f
  8280     148E  2C8D               	goto	u4897
  8281     148F  0BA4               	decfsz	??_lcd_init,f
  8282     1490  2C8D               	goto	u4897
  8283     1491  3200               	nop2
  8284                           
  8285                           ;myLCD_SC1602.c: 72:     lcd_data_byteset(0x03);
  8286     1492  3003               	movlw	3
  8287     1493  3192  228B  3194   	fcall	_lcd_data_byteset
  8288     1496                     l3578:
  8289                           
  8290                           ;myLCD_SC1602.c: 73:     _delay((unsigned long)((5)*(32000000/4000.0)));
  8291     1496  3034               	movlw	52
  8292     1497  0020               	movlb	0	; select bank0
  8293     1498  00A4               	movwf	??_lcd_init
  8294     1499  30F1               	movlw	241
  8295     149A                     u4907:
  8296     149A  0B89               	decfsz	9,f
  8297     149B  2C9A               	goto	u4907
  8298     149C  0BA4               	decfsz	??_lcd_init,f
  8299     149D  2C9A               	goto	u4907
  8300     149E  3200               	nop2
  8301     149F                     l3580:
  8302                           
  8303                           ;myLCD_SC1602.c: 74:     lcd_data_byteset(0x03);
  8304     149F  3003               	movlw	3
  8305     14A0  3192  228B  3194   	fcall	_lcd_data_byteset
  8306                           
  8307                           ;myLCD_SC1602.c: 75:     _delay((unsigned long)((1)*(32000000/4000.0)));
  8308     14A3  300B               	movlw	11
  8309     14A4  0020               	movlb	0	; select bank0
  8310     14A5  00A4               	movwf	??_lcd_init
  8311     14A6  3062               	movlw	98
  8312     14A7                     u4917:
  8313     14A7  0B89               	decfsz	9,f
  8314     14A8  2CA7               	goto	u4917
  8315     14A9  0BA4               	decfsz	??_lcd_init,f
  8316     14AA  2CA7               	goto	u4917
  8317     14AB  0000               	nop
  8318     14AC                     l3582:
  8319                           
  8320                           ;myLCD_SC1602.c: 76:     lcd_data_byteset(0x03);
  8321     14AC  3003               	movlw	3
  8322     14AD  3192  228B  3194   	fcall	_lcd_data_byteset
  8323     14B0                     l3584:
  8324                           
  8325                           ;myLCD_SC1602.c: 77:     _delay((unsigned long)((1)*(32000000/4000.0)));
  8326     14B0  300B               	movlw	11
  8327     14B1  0020               	movlb	0	; select bank0
  8328     14B2  00A4               	movwf	??_lcd_init
  8329     14B3  3062               	movlw	98
  8330     14B4                     u4927:
  8331     14B4  0B89               	decfsz	9,f
  8332     14B5  2CB4               	goto	u4927
  8333     14B6  0BA4               	decfsz	??_lcd_init,f
  8334     14B7  2CB4               	goto	u4927
  8335     14B8  0000               	nop
  8336                           
  8337                           ;myLCD_SC1602.c: 78:     lcd_data_byteset(0x02);
  8338     14B9  3002               	movlw	2
  8339     14BA  3192  228B  3194   	fcall	_lcd_data_byteset
  8340     14BD                     l3586:
  8341                           
  8342                           ;myLCD_SC1602.c: 79:     _delay((unsigned long)((1)*(32000000/4000.0)));
  8343     14BD  300B               	movlw	11
  8344     14BE  0020               	movlb	0	; select bank0
  8345     14BF  00A4               	movwf	??_lcd_init
  8346     14C0  3062               	movlw	98
  8347     14C1                     u4937:
  8348     14C1  0B89               	decfsz	9,f
  8349     14C2  2CC1               	goto	u4937
  8350     14C3  0BA4               	decfsz	??_lcd_init,f
  8351     14C4  2CC1               	goto	u4937
  8352     14C5  0000               	nop
  8353     14C6                     l3588:
  8354                           
  8355                           ;myLCD_SC1602.c: 80:     _delay((unsigned long)((10)*(32000000/4000000.0)));
  8356     14C6  301A               	movlw	26
  8357     14C7                     u4947:
  8358     14C7  0B89               	decfsz	9,f
  8359     14C8  2CC7               	goto	u4947
  8360     14C9  3200               	nop2
  8361                           
  8362                           ;myLCD_SC1602.c: 81:     lcd_data_set(0x28);
  8363     14CA  3028               	movlw	40
  8364     14CB  3192  22BB  3194   	fcall	_lcd_data_set
  8365     14CE                     l3590:
  8366                           
  8367                           ;myLCD_SC1602.c: 82:     _delay((unsigned long)((2)*(32000000/4000.0)));
  8368     14CE  3015               	movlw	21
  8369     14CF  0020               	movlb	0	; select bank0
  8370     14D0  00A4               	movwf	??_lcd_init
  8371     14D1  30C6               	movlw	198
  8372     14D2                     u4957:
  8373     14D2  0B89               	decfsz	9,f
  8374     14D3  2CD2               	goto	u4957
  8375     14D4  0BA4               	decfsz	??_lcd_init,f
  8376     14D5  2CD2               	goto	u4957
  8377     14D6  0000               	nop
  8378     14D7                     l3592:
  8379                           
  8380                           ;myLCD_SC1602.c: 83:     lcd_data_set(0x08);
  8381     14D7  3008               	movlw	8
  8382     14D8  3192  22BB  3194   	fcall	_lcd_data_set
  8383                           
  8384                           ;myLCD_SC1602.c: 84:     _delay((unsigned long)((2)*(32000000/4000.0)));
  8385     14DB  3015               	movlw	21
  8386     14DC  0020               	movlb	0	; select bank0
  8387     14DD  00A4               	movwf	??_lcd_init
  8388     14DE  30C6               	movlw	198
  8389     14DF                     u4967:
  8390     14DF  0B89               	decfsz	9,f
  8391     14E0  2CDF               	goto	u4967
  8392     14E1  0BA4               	decfsz	??_lcd_init,f
  8393     14E2  2CDF               	goto	u4967
  8394     14E3  0000               	nop
  8395     14E4                     l3594:
  8396                           
  8397                           ;myLCD_SC1602.c: 85:     lcd_data_set(0x0C);
  8398     14E4  300C               	movlw	12
  8399     14E5  3192  22BB  3194   	fcall	_lcd_data_set
  8400     14E8                     l3596:
  8401                           
  8402                           ;myLCD_SC1602.c: 86:     _delay((unsigned long)((2)*(32000000/4000.0)));
  8403     14E8  3015               	movlw	21
  8404     14E9  0020               	movlb	0	; select bank0
  8405     14EA  00A4               	movwf	??_lcd_init
  8406     14EB  30C6               	movlw	198
  8407     14EC                     u4977:
  8408     14EC  0B89               	decfsz	9,f
  8409     14ED  2CEC               	goto	u4977
  8410     14EE  0BA4               	decfsz	??_lcd_init,f
  8411     14EF  2CEC               	goto	u4977
  8412     14F0  0000               	nop
  8413                           
  8414                           ;myLCD_SC1602.c: 87:     lcd_data_set(0x06);
  8415     14F1  3006               	movlw	6
  8416     14F2  3192  22BB  3194   	fcall	_lcd_data_set
  8417     14F5                     l3598:
  8418                           
  8419                           ;myLCD_SC1602.c: 88:     _delay((unsigned long)((2)*(32000000/4000.0)));
  8420     14F5  3015               	movlw	21
  8421     14F6  0020               	movlb	0	; select bank0
  8422     14F7  00A4               	movwf	??_lcd_init
  8423     14F8  30C6               	movlw	198
  8424     14F9                     u4987:
  8425     14F9  0B89               	decfsz	9,f
  8426     14FA  2CF9               	goto	u4987
  8427     14FB  0BA4               	decfsz	??_lcd_init,f
  8428     14FC  2CF9               	goto	u4987
  8429     14FD  0000               	nop
  8430     14FE                     l3600:
  8431                           
  8432                           ;myLCD_SC1602.c: 89:     lcd_data_set(0x02);
  8433     14FE  3002               	movlw	2
  8434     14FF  3192  22BB  3194   	fcall	_lcd_data_set
  8435     1502                     l138:
  8436     1502  0008               	return
  8437     1503                     __end_of_lcd_init:
  8438                           
  8439                           	psect	text18
  8440     12BB                     __ptext18:	
  8441 ;; *************** function _lcd_data_set *****************
  8442 ;; Defined at:
  8443 ;;		line 45 in file "myLCD_SC1602.c"
  8444 ;; Parameters:    Size  Location     Type
  8445 ;;  c               1    wreg     unsigned char 
  8446 ;; Auto vars:     Size  Location     Type
  8447 ;;  c               1    3[BANK0 ] unsigned char 
  8448 ;; Return value:  Size  Location     Type
  8449 ;;                  1    wreg      void 
  8450 ;; Registers used:
  8451 ;;		wreg, status,2, status,0, pclath, cstack
  8452 ;; Tracked objects:
  8453 ;;		On entry : 0/0
  8454 ;;		On exit  : 0/0
  8455 ;;		Unchanged: 0/0
  8456 ;; Data sizes:     COMMON   BANK0   BANK1   BANK2   BANK3   BANK4   BANK5   BANK6   BANK7   BANK8   BANK9  BANK10  BANK1
      +1  BANK12
  8457 ;;      Params:         0       0       0       0       0       0       0       0       0       0       0       0       
      +0       0
  8458 ;;      Locals:         0       1       0       0       0       0       0       0       0       0       0       0       
      +0       0
  8459 ;;      Temps:          0       2       0       0       0       0       0       0       0       0       0       0       
      +0       0
  8460 ;;      Totals:         0       3       0       0       0       0       0       0       0       0       0       0       
      +0       0
  8461 ;;Total ram usage:        3 bytes
  8462 ;; Hardware stack levels used: 1
  8463 ;; Hardware stack levels required when called: 5
  8464 ;; This function calls:
  8465 ;;		_LCD_STROBE
  8466 ;; This function is called by:
  8467 ;;		_lcd_putch
  8468 ;;		_lcd_init
  8469 ;;		_lcd_write
  8470 ;; This function uses a non-reentrant model
  8471 ;;
  8472                           
  8473     12BB                     _lcd_data_set:	
  8474                           ;psect for function _lcd_data_set
  8475                           
  8476                           
  8477                           ;incstack = 0
  8478                           ; Regs used in _lcd_data_set: [wreg+status,2+status,0+pclath+cstack]
  8479                           ;lcd_data_set@c stored from wreg
  8480     12BB  0020               	movlb	0	; select bank0
  8481     12BC  00A3               	movwf	lcd_data_set@c
  8482     12BD                     l3248:
  8483                           
  8484                           ;myLCD_SC1602.c: 46:     PORTB = (PORTB & 0b00001111) | (c & 0b11110000);
  8485     12BD  30F0               	movlw	240
  8486     12BE  0523               	andwf	lcd_data_set@c,w
  8487     12BF  00A1               	movwf	??_lcd_data_set
  8488     12C0  080D               	movf	13,w	;volatile
  8489     12C1  390F               	andlw	15
  8490     12C2  0421               	iorwf	??_lcd_data_set,w
  8491     12C3  008D               	movwf	13	;volatile
  8492     12C4                     l3250:
  8493                           
  8494                           ;myLCD_SC1602.c: 47:     LCD_STROBE();
  8495     12C4  3188  2000  3192   	fcall	_LCD_STROBE
  8496     12C7                     l3252:
  8497                           
  8498                           ;myLCD_SC1602.c: 48:     PORTB = (PORTB & 0b00001111) | ((c << 4) & 0b11110000);
  8499     12C7  0020               	movlb	0	; select bank0
  8500     12C8  0823               	movf	lcd_data_set@c,w
  8501     12C9  00A1               	movwf	??_lcd_data_set
  8502     12CA  3004               	movlw	4
  8503     12CB                     u4285:
  8504     12CB  35A1               	lslf	??_lcd_data_set,f
  8505     12CC  0B89               	decfsz	9,f
  8506     12CD  2ACB               	goto	u4285
  8507     12CE  30F0               	movlw	240
  8508     12CF  0521               	andwf	??_lcd_data_set,w
  8509     12D0  00A2               	movwf	??_lcd_data_set+1
  8510     12D1  080D               	movf	13,w	;volatile
  8511     12D2  390F               	andlw	15
  8512     12D3  0422               	iorwf	??_lcd_data_set+1,w
  8513     12D4  008D               	movwf	13	;volatile
  8514                           
  8515                           ;myLCD_SC1602.c: 49:     LCD_STROBE();
  8516     12D5  3188  2000  3192   	fcall	_LCD_STROBE
  8517     12D8                     l129:
  8518     12D8  0008               	return
  8519     12D9                     __end_of_lcd_data_set:
  8520                           
  8521                           	psect	text19
  8522     128B                     __ptext19:	
  8523 ;; *************** function _lcd_data_byteset *****************
  8524 ;; Defined at:
  8525 ;;		line 39 in file "myLCD_SC1602.c"
  8526 ;; Parameters:    Size  Location     Type
  8527 ;;  c               1    wreg     unsigned char 
  8528 ;; Auto vars:     Size  Location     Type
  8529 ;;  c               1    3[BANK0 ] unsigned char 
  8530 ;; Return value:  Size  Location     Type
  8531 ;;                  1    wreg      void 
  8532 ;; Registers used:
  8533 ;;		wreg, status,2, status,0, pclath, cstack
  8534 ;; Tracked objects:
  8535 ;;		On entry : 0/0
  8536 ;;		On exit  : 0/0
  8537 ;;		Unchanged: 0/0
  8538 ;; Data sizes:     COMMON   BANK0   BANK1   BANK2   BANK3   BANK4   BANK5   BANK6   BANK7   BANK8   BANK9  BANK10  BANK1
      +1  BANK12
  8539 ;;      Params:         0       0       0       0       0       0       0       0       0       0       0       0       
      +0       0
  8540 ;;      Locals:         0       1       0       0       0       0       0       0       0       0       0       0       
      +0       0
  8541 ;;      Temps:          0       2       0       0       0       0       0       0       0       0       0       0       
      +0       0
  8542 ;;      Totals:         0       3       0       0       0       0       0       0       0       0       0       0       
      +0       0
  8543 ;;Total ram usage:        3 bytes
  8544 ;; Hardware stack levels used: 1
  8545 ;; Hardware stack levels required when called: 5
  8546 ;; This function calls:
  8547 ;;		_LCD_STROBE
  8548 ;; This function is called by:
  8549 ;;		_lcd_init
  8550 ;; This function uses a non-reentrant model
  8551 ;;
  8552                           
  8553     128B                     _lcd_data_byteset:	
  8554                           ;psect for function _lcd_data_byteset
  8555                           
  8556                           
  8557                           ;incstack = 0
  8558                           ; Regs used in _lcd_data_byteset: [wreg+status,2+status,0+pclath+cstack]
  8559                           ;lcd_data_byteset@c stored from wreg
  8560     128B  0020               	movlb	0	; select bank0
  8561     128C  00A3               	movwf	lcd_data_byteset@c
  8562     128D                     l3424:
  8563                           
  8564                           ;myLCD_SC1602.c: 40:     PORTB = (PORTB & 0b00001111) | ((c << 4) & 0b11110000);
  8565     128D  0823               	movf	lcd_data_byteset@c,w
  8566     128E  00A1               	movwf	??_lcd_data_byteset
  8567     128F  3004               	movlw	4
  8568     1290                     u4465:
  8569     1290  35A1               	lslf	??_lcd_data_byteset,f
  8570     1291  0B89               	decfsz	9,f
  8571     1292  2A90               	goto	u4465
  8572     1293  30F0               	movlw	240
  8573     1294  0521               	andwf	??_lcd_data_byteset,w
  8574     1295  00A2               	movwf	??_lcd_data_byteset+1
  8575     1296  080D               	movf	13,w	;volatile
  8576     1297  390F               	andlw	15
  8577     1298  0422               	iorwf	??_lcd_data_byteset+1,w
  8578     1299  008D               	movwf	13	;volatile
  8579     129A                     l3426:
  8580                           
  8581                           ;myLCD_SC1602.c: 41:     LCD_STROBE();
  8582     129A  3188  2000  3192   	fcall	_LCD_STROBE
  8583     129D                     l126:
  8584     129D  0008               	return
  8585     129E                     __end_of_lcd_data_byteset:
  8586                           
  8587                           	psect	text20
  8588     0800                     __ptext20:	
  8589 ;; *************** function _LCD_STROBE *****************
  8590 ;; Defined at:
  8591 ;;		line 32 in file "myLCD_SC1602.c"
  8592 ;; Parameters:    Size  Location     Type
  8593 ;;		None
  8594 ;; Auto vars:     Size  Location     Type
  8595 ;;		None
  8596 ;; Return value:  Size  Location     Type
  8597 ;;                  1    wreg      void 
  8598 ;; Registers used:
  8599 ;;		wreg, status,2, status,0, pclath, cstack
  8600 ;; Tracked objects:
  8601 ;;		On entry : 0/0
  8602 ;;		On exit  : 0/0
  8603 ;;		Unchanged: 0/0
  8604 ;; Data sizes:     COMMON   BANK0   BANK1   BANK2   BANK3   BANK4   BANK5   BANK6   BANK7   BANK8   BANK9  BANK10  BANK1
      +1  BANK12
  8605 ;;      Params:         0       0       0       0       0       0       0       0       0       0       0       0       
      +0       0
  8606 ;;      Locals:         0       0       0       0       0       0       0       0       0       0       0       0       
      +0       0
  8607 ;;      Temps:          0       1       0       0       0       0       0       0       0       0       0       0       
      +0       0
  8608 ;;      Totals:         0       1       0       0       0       0       0       0       0       0       0       0       
      +0       0
  8609 ;;Total ram usage:        1 bytes
  8610 ;; Hardware stack levels used: 1
  8611 ;; Hardware stack levels required when called: 4
  8612 ;; This function calls:
  8613 ;;		_LCD_EN
  8614 ;; This function is called by:
  8615 ;;		_lcd_data_byteset
  8616 ;;		_lcd_data_set
  8617 ;; This function uses a non-reentrant model
  8618 ;;
  8619                           
  8620     0800                     _LCD_STROBE:	
  8621                           ;psect for function _LCD_STROBE
  8622                           
  8623     0800                     l3004:	
  8624                           ;incstack = 0
  8625                           ; Regs used in _LCD_STROBE: [wreg+status,2+status,0+pclath+cstack]
  8626                           
  8627                           
  8628                           ;myLCD_SC1602.c: 33:     LCD_EN(1);
  8629     0800  3001               	movlw	1
  8630     0801  3192  225B  3188   	fcall	_LCD_EN
  8631     0804                     l3006:
  8632                           
  8633                           ;myLCD_SC1602.c: 34:     _delay((unsigned long)((230)*(32000000/4000000.0)));
  8634     0804  3003               	movlw	3
  8635     0805  0020               	movlb	0	; select bank0
  8636     0806  00A0               	movwf	??_LCD_STROBE
  8637     0807  3062               	movlw	98
  8638     0808                     u4997:
  8639     0808  0B89               	decfsz	9,f
  8640     0809  2808               	goto	u4997
  8641     080A  0BA0               	decfsz	??_LCD_STROBE,f
  8642     080B  2808               	goto	u4997
  8643     080C  0000               	nop
  8644     080D                     l3008:
  8645                           
  8646                           ;myLCD_SC1602.c: 35:     LCD_EN(0);
  8647     080D  3000               	movlw	0
  8648     080E  3192  225B  3188   	fcall	_LCD_EN
  8649     0811                     l123:
  8650     0811  0008               	return
  8651     0812                     __end_of_LCD_STROBE:
  8652                           
  8653                           	psect	text21
  8654     125B                     __ptext21:	
  8655 ;; *************** function _LCD_EN *****************
  8656 ;; Defined at:
  8657 ;;		line 22 in file "myLCD_SC1602.c"
  8658 ;; Parameters:    Size  Location     Type
  8659 ;;  enable          1    wreg     unsigned char 
  8660 ;; Auto vars:     Size  Location     Type
  8661 ;;  enable          1    5[COMMON] unsigned char 
  8662 ;; Return value:  Size  Location     Type
  8663 ;;                  1    wreg      void 
  8664 ;; Registers used:
  8665 ;;		wreg, status,2, status,0
  8666 ;; Tracked objects:
  8667 ;;		On entry : 0/0
  8668 ;;		On exit  : 0/0
  8669 ;;		Unchanged: 0/0
  8670 ;; Data sizes:     COMMON   BANK0   BANK1   BANK2   BANK3   BANK4   BANK5   BANK6   BANK7   BANK8   BANK9  BANK10  BANK1
      +1  BANK12
  8671 ;;      Params:         0       0       0       0       0       0       0       0       0       0       0       0       
      +0       0
  8672 ;;      Locals:         1       0       0       0       0       0       0       0       0       0       0       0       
      +0       0
  8673 ;;      Temps:          0       0       0       0       0       0       0       0       0       0       0       0       
      +0       0
  8674 ;;      Totals:         1       0       0       0       0       0       0       0       0       0       0       0       
      +0       0
  8675 ;;Total ram usage:        1 bytes
  8676 ;; Hardware stack levels used: 1
  8677 ;; Hardware stack levels required when called: 3
  8678 ;; This function calls:
  8679 ;;		Nothing
  8680 ;; This function is called by:
  8681 ;;		_LCD_STROBE
  8682 ;; This function uses a non-reentrant model
  8683 ;;
  8684                           
  8685     125B                     _LCD_EN:	
  8686                           ;psect for function _LCD_EN
  8687                           
  8688                           
  8689                           ;incstack = 0
  8690                           ; Regs used in _LCD_EN: [wreg+status,2+status,0]
  8691                           ;LCD_EN@enable stored from wreg
  8692     125B  00F5               	movwf	LCD_EN@enable
  8693     125C                     l1782:
  8694                           
  8695                           ;myLCD_SC1602.c: 23:     RC7 = (enable ? 1 : 0);
  8696     125C  0875               	movf	LCD_EN@enable,w
  8697     125D  1D03               	btfss	3,2
  8698     125E  2A60               	goto	u1661
  8699     125F  2A63               	goto	u1660
  8700     1260                     u1661:
  8701     1260  0020               	movlb	0	; select bank0
  8702     1261  178E               	bsf	14,7	;volatile
  8703     1262  2A65               	goto	u1674
  8704     1263                     u1660:
  8705     1263  0020               	movlb	0	; select bank0
  8706     1264  138E               	bcf	14,7	;volatile
  8707     1265                     u1674:
  8708     1265                     l117:
  8709     1265  0008               	return
  8710     1266                     __end_of_LCD_EN:
  8711                           
  8712                           	psect	text22
  8713     1250                     __ptext22:	
  8714 ;; *************** function _LCD_RS *****************
  8715 ;; Defined at:
  8716 ;;		line 27 in file "myLCD_SC1602.c"
  8717 ;; Parameters:    Size  Location     Type
  8718 ;;  enable          1    wreg     unsigned char 
  8719 ;; Auto vars:     Size  Location     Type
  8720 ;;  enable          1    5[COMMON] unsigned char 
  8721 ;; Return value:  Size  Location     Type
  8722 ;;                  1    wreg      void 
  8723 ;; Registers used:
  8724 ;;		wreg, status,2, status,0
  8725 ;; Tracked objects:
  8726 ;;		On entry : 0/0
  8727 ;;		On exit  : 0/0
  8728 ;;		Unchanged: 0/0
  8729 ;; Data sizes:     COMMON   BANK0   BANK1   BANK2   BANK3   BANK4   BANK5   BANK6   BANK7   BANK8   BANK9  BANK10  BANK1
      +1  BANK12
  8730 ;;      Params:         0       0       0       0       0       0       0       0       0       0       0       0       
      +0       0
  8731 ;;      Locals:         1       0       0       0       0       0       0       0       0       0       0       0       
      +0       0
  8732 ;;      Temps:          0       0       0       0       0       0       0       0       0       0       0       0       
      +0       0
  8733 ;;      Totals:         1       0       0       0       0       0       0       0       0       0       0       0       
      +0       0
  8734 ;;Total ram usage:        1 bytes
  8735 ;; Hardware stack levels used: 1
  8736 ;; Hardware stack levels required when called: 3
  8737 ;; This function calls:
  8738 ;;		Nothing
  8739 ;; This function is called by:
  8740 ;;		_lcd_putch
  8741 ;;		_lcd_init
  8742 ;;		_lcd_puts
  8743 ;;		_lcd_write
  8744 ;;		_lcd_clear
  8745 ;;		_lcd_goto
  8746 ;; This function uses a non-reentrant model
  8747 ;;
  8748                           
  8749     1250                     _LCD_RS:	
  8750                           ;psect for function _LCD_RS
  8751                           
  8752                           
  8753                           ;incstack = 0
  8754                           ; Regs used in _LCD_RS: [wreg+status,2+status,0]
  8755                           ;LCD_RS@enable stored from wreg
  8756     1250  00F5               	movwf	LCD_RS@enable
  8757     1251                     l2236:
  8758                           
  8759                           ;myLCD_SC1602.c: 28:     RC5 = (enable ? 1 : 0);
  8760     1251  0875               	movf	LCD_RS@enable,w
  8761     1252  1D03               	btfss	3,2
  8762     1253  2A55               	goto	u2651
  8763     1254  2A58               	goto	u2650
  8764     1255                     u2651:
  8765     1255  0020               	movlb	0	; select bank0
  8766     1256  168E               	bsf	14,5	;volatile
  8767     1257  2A5A               	goto	u2664
  8768     1258                     u2650:
  8769     1258  0020               	movlb	0	; select bank0
  8770     1259  128E               	bcf	14,5	;volatile
  8771     125A                     u2664:
  8772     125A                     l120:
  8773     125A  0008               	return
  8774     125B                     __end_of_LCD_RS:
  8775                           
  8776                           	psect	text23
  8777     0812                     __ptext23:	
  8778 ;; *************** function ___lwdiv *****************
  8779 ;; Defined at:
  8780 ;;		line 5 in file "C:\Program Files\Microchip\xc8\v2.40\pic\sources\c99\common\lwdiv.c"
  8781 ;; Parameters:    Size  Location     Type
  8782 ;;  divisor         2    0[BANK0 ] unsigned int 
  8783 ;;  dividend        2    2[BANK0 ] unsigned int 
  8784 ;; Auto vars:     Size  Location     Type
  8785 ;;  quotient        2    5[BANK0 ] unsigned int 
  8786 ;;  counter         1    4[BANK0 ] unsigned char 
  8787 ;; Return value:  Size  Location     Type
  8788 ;;                  2    0[BANK0 ] unsigned int 
  8789 ;; Registers used:
  8790 ;;		wreg, status,2, status,0
  8791 ;; Tracked objects:
  8792 ;;		On entry : 0/0
  8793 ;;		On exit  : 0/0
  8794 ;;		Unchanged: 0/0
  8795 ;; Data sizes:     COMMON   BANK0   BANK1   BANK2   BANK3   BANK4   BANK5   BANK6   BANK7   BANK8   BANK9  BANK10  BANK1
      +1  BANK12
  8796 ;;      Params:         0       4       0       0       0       0       0       0       0       0       0       0       
      +0       0
  8797 ;;      Locals:         0       3       0       0       0       0       0       0       0       0       0       0       
      +0       0
  8798 ;;      Temps:          1       0       0       0       0       0       0       0       0       0       0       0       
      +0       0
  8799 ;;      Totals:         1       7       0       0       0       0       0       0       0       0       0       0       
      +0       0
  8800 ;;Total ram usage:        8 bytes
  8801 ;; Hardware stack levels used: 1
  8802 ;; Hardware stack levels required when called: 3
  8803 ;; This function calls:
  8804 ;;		Nothing
  8805 ;; This function is called by:
  8806 ;;		_main
  8807 ;; This function uses a non-reentrant model
  8808 ;;
  8809                           
  8810     0812                     ___lwdiv:	
  8811                           ;psect for function ___lwdiv
  8812                           
  8813     0812                     l3630:	
  8814                           ;incstack = 0
  8815                           ; Regs used in ___lwdiv: [wreg+status,2+status,0]
  8816                           
  8817     0812  0020               	movlb	0	; select bank0
  8818     0813  01A5               	clrf	___lwdiv@quotient
  8819     0814  01A6               	clrf	___lwdiv@quotient+1
  8820     0815                     l3632:
  8821     0815  0820               	movf	___lwdiv@divisor,w
  8822     0816  0421               	iorwf	___lwdiv@divisor+1,w
  8823     0817  1903               	btfsc	3,2
  8824     0818  281A               	goto	u4781
  8825     0819  281B               	goto	u4780
  8826     081A                     u4781:
  8827     081A  284A               	goto	l3652
  8828     081B                     u4780:
  8829     081B                     l3634:
  8830     081B  01A4               	clrf	___lwdiv@counter
  8831     081C  0AA4               	incf	___lwdiv@counter,f
  8832     081D  2827               	goto	l3640
  8833     081E                     l3636:
  8834     081E  3001               	movlw	1
  8835     081F                     u4795:
  8836     081F  35A0               	lslf	___lwdiv@divisor,f
  8837     0820  0DA1               	rlf	___lwdiv@divisor+1,f
  8838     0821  0B89               	decfsz	9,f
  8839     0822  281F               	goto	u4795
  8840     0823                     l3638:
  8841     0823  3001               	movlw	1
  8842     0824  00F5               	movwf	??___lwdiv
  8843     0825  0875               	movf	??___lwdiv,w
  8844     0826  07A4               	addwf	___lwdiv@counter,f
  8845     0827                     l3640:
  8846     0827  1FA1               	btfss	___lwdiv@divisor+1,7
  8847     0828  282A               	goto	u4801
  8848     0829  282B               	goto	u4800
  8849     082A                     u4801:
  8850     082A  281E               	goto	l3636
  8851     082B                     u4800:
  8852     082B                     l3642:
  8853     082B  3001               	movlw	1
  8854     082C                     u4815:
  8855     082C  35A5               	lslf	___lwdiv@quotient,f
  8856     082D  0DA6               	rlf	___lwdiv@quotient+1,f
  8857     082E  0B89               	decfsz	9,f
  8858     082F  282C               	goto	u4815
  8859     0830  0821               	movf	___lwdiv@divisor+1,w
  8860     0831  0223               	subwf	___lwdiv@dividend+1,w
  8861     0832  1D03               	skipz
  8862     0833  2836               	goto	u4825
  8863     0834  0820               	movf	___lwdiv@divisor,w
  8864     0835  0222               	subwf	___lwdiv@dividend,w
  8865     0836                     u4825:
  8866     0836  1C03               	skipc
  8867     0837  2839               	goto	u4821
  8868     0838  283A               	goto	u4820
  8869     0839                     u4821:
  8870     0839  283F               	goto	l3648
  8871     083A                     u4820:
  8872     083A                     l3644:
  8873     083A  0820               	movf	___lwdiv@divisor,w
  8874     083B  02A2               	subwf	___lwdiv@dividend,f
  8875     083C  0821               	movf	___lwdiv@divisor+1,w
  8876     083D  3BA3               	subwfb	___lwdiv@dividend+1,f
  8877     083E                     l3646:
  8878     083E  1425               	bsf	___lwdiv@quotient,0
  8879     083F                     l3648:
  8880     083F  3001               	movlw	1
  8881     0840                     u4835:
  8882     0840  36A1               	lsrf	___lwdiv@divisor+1,f
  8883     0841  0CA0               	rrf	___lwdiv@divisor,f
  8884     0842  0B89               	decfsz	9,f
  8885     0843  2840               	goto	u4835
  8886     0844                     l3650:
  8887     0844  3001               	movlw	1
  8888     0845  02A4               	subwf	___lwdiv@counter,f
  8889     0846  1D03               	btfss	3,2
  8890     0847  2849               	goto	u4841
  8891     0848  284A               	goto	u4840
  8892     0849                     u4841:
  8893     0849  282B               	goto	l3642
  8894     084A                     u4840:
  8895     084A                     l3652:
  8896     084A  0826               	movf	___lwdiv@quotient+1,w
  8897     084B  00A1               	movwf	?___lwdiv+1
  8898     084C  0825               	movf	___lwdiv@quotient,w
  8899     084D  00A0               	movwf	?___lwdiv
  8900     084E                     l498:
  8901     084E  0008               	return
  8902     084F                     __end_of___lwdiv:
  8903                           
  8904                           	psect	text24
  8905     127E                     __ptext24:	
  8906 ;; *************** function _Timer_init *****************
  8907 ;; Defined at:
  8908 ;;		line 99 in file "main.c"
  8909 ;; Parameters:    Size  Location     Type
  8910 ;;		None
  8911 ;; Auto vars:     Size  Location     Type
  8912 ;;		None
  8913 ;; Return value:  Size  Location     Type
  8914 ;;                  1    wreg      void 
  8915 ;; Registers used:
  8916 ;;		wreg
  8917 ;; Tracked objects:
  8918 ;;		On entry : 0/0
  8919 ;;		On exit  : 0/0
  8920 ;;		Unchanged: 0/0
  8921 ;; Data sizes:     COMMON   BANK0   BANK1   BANK2   BANK3   BANK4   BANK5   BANK6   BANK7   BANK8   BANK9  BANK10  BANK1
      +1  BANK12
  8922 ;;      Params:         0       0       0       0       0       0       0       0       0       0       0       0       
      +0       0
  8923 ;;      Locals:         0       0       0       0       0       0       0       0       0       0       0       0       
      +0       0
  8924 ;;      Temps:          0       0       0       0       0       0       0       0       0       0       0       0       
      +0       0
  8925 ;;      Totals:         0       0       0       0       0       0       0       0       0       0       0       0       
      +0       0
  8926 ;;Total ram usage:        0 bytes
  8927 ;; Hardware stack levels used: 1
  8928 ;; Hardware stack levels required when called: 3
  8929 ;; This function calls:
  8930 ;;		Nothing
  8931 ;; This function is called by:
  8932 ;;		_main
  8933 ;; This function uses a non-reentrant model
  8934 ;;
  8935                           
  8936     127E                     _Timer_init:	
  8937                           ;psect for function _Timer_init
  8938                           
  8939     127E                     l2594:	
  8940                           ;incstack = 0
  8941                           ; Regs used in _Timer_init: [wreg]
  8942                           
  8943                           
  8944                           ;main.c: 102:     T2CLKCON = 0b00000001;
  8945     127E  3001               	movlw	1
  8946     127F  0020               	movlb	0	; select bank0
  8947     1280  009E               	movwf	30	;volatile
  8948     1281                     l2596:
  8949                           
  8950                           ;main.c: 103:     TMR2IE = 1;
  8951     1281  0021               	movlb	1	; select bank1
  8952     1282  1491               	bsf	17,1	;volatile
  8953     1283                     l2598:
  8954                           
  8955                           ;main.c: 104:     PEIE = 1;
  8956     1283  170B               	bsf	11,6	;volatile
  8957     1284                     l2600:
  8958                           
  8959                           ;main.c: 105:     GIE = 1;
  8960     1284  178B               	bsf	11,7	;volatile
  8961                           
  8962                           ;main.c: 106:     PR2 = (uint8_t)((uint32_t)32000000/((uint32_t)80000 * 4) - 1);
  8963     1285  3063               	movlw	99
  8964     1286  0020               	movlb	0	; select bank0
  8965     1287  009B               	movwf	27	;volatile
  8966                           
  8967                           ;main.c: 107:     T2CON = 0b10000000;
  8968     1288  3080               	movlw	128
  8969     1289  009C               	movwf	28	;volatile
  8970     128A                     l73:
  8971     128A  0008               	return
  8972     128B                     __end_of_Timer_init:
  8973                           
  8974                           	psect	text25
  8975     1249                     __ptext25:	
  8976 ;; *************** function _DAC_init *****************
  8977 ;; Defined at:
  8978 ;;		line 111 in file "main.c"
  8979 ;; Parameters:    Size  Location     Type
  8980 ;;		None
  8981 ;; Auto vars:     Size  Location     Type
  8982 ;;		None
  8983 ;; Return value:  Size  Location     Type
  8984 ;;                  1    wreg      void 
  8985 ;; Registers used:
  8986 ;;		wreg
  8987 ;; Tracked objects:
  8988 ;;		On entry : 0/0
  8989 ;;		On exit  : 0/0
  8990 ;;		Unchanged: 0/0
  8991 ;; Data sizes:     COMMON   BANK0   BANK1   BANK2   BANK3   BANK4   BANK5   BANK6   BANK7   BANK8   BANK9  BANK10  BANK1
      +1  BANK12
  8992 ;;      Params:         0       0       0       0       0       0       0       0       0       0       0       0       
      +0       0
  8993 ;;      Locals:         0       0       0       0       0       0       0       0       0       0       0       0       
      +0       0
  8994 ;;      Temps:          0       0       0       0       0       0       0       0       0       0       0       0       
      +0       0
  8995 ;;      Totals:         0       0       0       0       0       0       0       0       0       0       0       0       
      +0       0
  8996 ;;Total ram usage:        0 bytes
  8997 ;; Hardware stack levels used: 1
  8998 ;; Hardware stack levels required when called: 3
  8999 ;; This function calls:
  9000 ;;		Nothing
  9001 ;; This function is called by:
  9002 ;;		_main
  9003 ;; This function uses a non-reentrant model
  9004 ;;
  9005                           
  9006     1249                     _DAC_init:	
  9007                           ;psect for function _DAC_init
  9008                           
  9009     1249                     l2602:	
  9010                           ;incstack = 0
  9011                           ; Regs used in _DAC_init: [wreg]
  9012                           
  9013                           
  9014                           ;main.c: 112:     DAC1CON0 = 0b11101000;
  9015     1249  30E8               	movlw	232
  9016     124A  002B               	movlb	11	; select bank11
  9017     124B  0091               	movwf	17	;volatile
  9018                           
  9019                           ;main.c: 113:     FVRCON = 0b10001100;
  9020     124C  308C               	movlw	140
  9021     124D  0024               	movlb	4	; select bank4
  9022     124E  009E               	movwf	30	;volatile
  9023     124F                     l76:
  9024     124F  0008               	return
  9025     1250                     __end_of_DAC_init:
  9026                           
  9027                           	psect	intentry
  9028     0004                     __pintentry:	
  9029 ;; *************** function _isr *****************
  9030 ;; Defined at:
  9031 ;;		line 153 in file "main.c"
  9032 ;; Parameters:    Size  Location     Type
  9033 ;;		None
  9034 ;; Auto vars:     Size  Location     Type
  9035 ;;		None
  9036 ;; Return value:  Size  Location     Type
  9037 ;;                  1    wreg      void 
  9038 ;; Registers used:
  9039 ;;		wreg, fsr1l, fsr1h, status,2, status,0, pclath, cstack
  9040 ;; Tracked objects:
  9041 ;;		On entry : 0/0
  9042 ;;		On exit  : 0/0
  9043 ;;		Unchanged: 0/0
  9044 ;; Data sizes:     COMMON   BANK0   BANK1   BANK2   BANK3   BANK4   BANK5   BANK6   BANK7   BANK8   BANK9  BANK10  BANK1
      +1  BANK12
  9045 ;;      Params:         0       0       0       0       0       0       0       0       0       0       0       0       
      +0       0
  9046 ;;      Locals:         0       0       0       0       0       0       0       0       0       0       0       0       
      +0       0
  9047 ;;      Temps:          0       0       0       0       0       0       0       0       0       0       0       0       
      +0       0
  9048 ;;      Totals:         0       0       0       0       0       0       0       0       0       0       0       0       
      +0       0
  9049 ;;Total ram usage:        0 bytes
  9050 ;; Hardware stack levels used: 1
  9051 ;; Hardware stack levels required when called: 2
  9052 ;; This function calls:
  9053 ;;		_wave_out
  9054 ;; This function is called by:
  9055 ;;		Interrupt level 1
  9056 ;; This function uses a non-reentrant model
  9057 ;;
  9058                           
  9059     0004                     _isr:
  9060                           
  9061                           ;incstack = 0
  9062     0004  147E               	bsf	int$flags,0	;set compiler interrupt flag (level 1)
  9063                           
  9064                           ; Regs used in _isr: [wreg+fsr1l+fsr1h+status,2+status,0+pclath+cstack]
  9065     0005  3180               	pagesel	$
  9066     0006                     i1l2726:
  9067                           
  9068                           ;main.c: 154:     TMR2IF = 0;
  9069     0006  0020               	movlb	0	; select bank0
  9070     0007  1091               	bcf	17,1	;volatile
  9071     0008                     i1l2728:
  9072                           
  9073                           ;main.c: 155:     wave_out();
  9074     0008  3193  231D  3180   	fcall	_wave_out
  9075     000B                     i1l106:
  9076     000B  107E               	bcf	int$flags,0	;clear compiler interrupt flag (level 1)
  9077     000C  0009               	retfie
  9078     000D                     __end_of_isr:
  9079                           
  9080                           	psect	text27
  9081     131D                     __ptext27:	
  9082 ;; *************** function _wave_out *****************
  9083 ;; Defined at:
  9084 ;;		line 129 in file "main.c"
  9085 ;; Parameters:    Size  Location     Type
  9086 ;;		None
  9087 ;; Auto vars:     Size  Location     Type
  9088 ;;		None
  9089 ;; Return value:  Size  Location     Type
  9090 ;;                  1    wreg      void 
  9091 ;; Registers used:
  9092 ;;		wreg, fsr1l, fsr1h, status,2, status,0, pclath, cstack
  9093 ;; Tracked objects:
  9094 ;;		On entry : 0/0
  9095 ;;		On exit  : 0/0
  9096 ;;		Unchanged: 0/0
  9097 ;; Data sizes:     COMMON   BANK0   BANK1   BANK2   BANK3   BANK4   BANK5   BANK6   BANK7   BANK8   BANK9  BANK10  BANK1
      +1  BANK12
  9098 ;;      Params:         0       0       0       0       0       0       0       0       0       0       0       0       
      +0       0
  9099 ;;      Locals:         0       0       0       0       0       0       0       0       0       0       0       0       
      +0       0
  9100 ;;      Temps:          4       0       0       0       0       0       0       0       0       0       0       0       
      +0       0
  9101 ;;      Totals:         4       0       0       0       0       0       0       0       0       0       0       0       
      +0       0
  9102 ;;Total ram usage:        4 bytes
  9103 ;; Hardware stack levels used: 1
  9104 ;; Hardware stack levels required when called: 1
  9105 ;; This function calls:
  9106 ;;		_DAC_valueset
  9107 ;; This function is called by:
  9108 ;;		_isr
  9109 ;; This function uses a non-reentrant model
  9110 ;;
  9111                           
  9112     131D                     _wave_out:	
  9113                           ;psect for function _wave_out
  9114                           
  9115     131D                     i1l2628:	
  9116                           ;incstack = 0
  9117                           ; Regs used in _wave_out: [wreg+fsr1l+fsr1h+status,2+status,0+pclath+cstack]
  9118                           
  9119                           
  9120                           ;main.c: 130:     static uint8_t i = 0;;main.c: 131:     static uint8_t stage = 0;;main.
      +                          c: 133:     if (wavetype == Sinusoidal) {
  9121     131D  0878               	movf	_wavetype,w
  9122     131E  1D03               	btfss	3,2
  9123     131F  2B21               	goto	u317_21
  9124     1320  2B22               	goto	u317_20
  9125     1321                     u317_21:
  9126     1321  2B8C               	goto	i1l101
  9127     1322                     u317_20:
  9128     1322                     i1l2630:
  9129                           
  9130                           ;main.c: 134:         if (stage == 0) {
  9131     1322  0876               	movf	wave_out@stage,w
  9132     1323  1D03               	btfss	3,2
  9133     1324  2B26               	goto	u318_21
  9134     1325  2B27               	goto	u318_20
  9135     1326                     u318_21:
  9136     1326  2B32               	goto	i1l2634
  9137     1327                     u318_20:
  9138     1327                     i1l2632:
  9139                           
  9140                           ;main.c: 135:             DAC_valueset(sine_table[i]);
  9141     1327  0877               	movf	wave_out@i,w
  9142     1328  3E28               	addlw	40
  9143     1329  0086               	movwf	6
  9144     132A  0187               	clrf	7
  9145     132B  3023               	movlw	35
  9146     132C  3D87               	addwfc	7,f
  9147     132D  0801               	movf	1,w
  9148     132E  3192  2242  3193   	fcall	_DAC_valueset
  9149                           
  9150                           ;main.c: 136:         } else if (stage == 1) {
  9151     1331  2B74               	goto	i1l2646
  9152     1332                     i1l2634:
  9153     1332  0376               	decf	wave_out@stage,w
  9154     1333  1D03               	btfss	3,2
  9155     1334  2B36               	goto	u319_21
  9156     1335  2B37               	goto	u319_20
  9157     1336                     u319_21:
  9158     1336  2B49               	goto	i1l2638
  9159     1337                     u319_20:
  9160     1337                     i1l2636:
  9161                           
  9162                           ;main.c: 137:             DAC_valueset(sine_table[200 - i - 1]);
  9163     1337  0877               	movf	wave_out@i,w
  9164     1338  00F1               	movwf	??_wave_out
  9165     1339  01F2               	clrf	??_wave_out+1
  9166     133A  30EF               	movlw	239
  9167     133B  00F3               	movwf	??_wave_out+2
  9168     133C  3023               	movlw	35
  9169     133D  00F4               	movwf	??_wave_out+3
  9170     133E  0871               	movf	??_wave_out,w
  9171     133F  0273               	subwf	??_wave_out+2,w
  9172     1340  0086               	movwf	6
  9173     1341  0872               	movf	??_wave_out+1,w
  9174     1342  3B74               	subwfb	??_wave_out+3,w
  9175     1343  0087               	movwf	7
  9176     1344  0801               	movf	1,w
  9177     1345  3192  2242  3193   	fcall	_DAC_valueset
  9178                           
  9179                           ;main.c: 138:         } else if (stage == 2) {
  9180     1348  2B74               	goto	i1l2646
  9181     1349                     i1l2638:
  9182     1349  3002               	movlw	2
  9183     134A  0676               	xorwf	wave_out@stage,w
  9184     134B  1D03               	btfss	3,2
  9185     134C  2B4E               	goto	u320_21
  9186     134D  2B4F               	goto	u320_20
  9187     134E                     u320_21:
  9188     134E  2B5B               	goto	i1l2642
  9189     134F                     u320_20:
  9190     134F                     i1l2640:
  9191                           
  9192                           ;main.c: 139:             DAC_valueset(254 - sine_table[i]);
  9193     134F  0877               	movf	wave_out@i,w
  9194     1350  3E28               	addlw	40
  9195     1351  0086               	movwf	6
  9196     1352  0187               	clrf	7
  9197     1353  3023               	movlw	35
  9198     1354  3D87               	addwfc	7,f
  9199     1355  0801               	movf	1,w
  9200     1356  3CFE               	sublw	254
  9201     1357  3192  2242  3193   	fcall	_DAC_valueset
  9202                           
  9203                           ;main.c: 140:         } else if (stage == 3) {
  9204     135A  2B74               	goto	i1l2646
  9205     135B                     i1l2642:
  9206     135B  3003               	movlw	3
  9207     135C  0676               	xorwf	wave_out@stage,w
  9208     135D  1D03               	btfss	3,2
  9209     135E  2B60               	goto	u321_21
  9210     135F  2B61               	goto	u321_20
  9211     1360                     u321_21:
  9212     1360  2B74               	goto	i1l95
  9213     1361                     u321_20:
  9214     1361                     i1l2644:
  9215                           
  9216                           ;main.c: 141:             DAC_valueset(254 - sine_table[200 - i - 1]);
  9217     1361  0877               	movf	wave_out@i,w
  9218     1362  00F1               	movwf	??_wave_out
  9219     1363  01F2               	clrf	??_wave_out+1
  9220     1364  30EF               	movlw	239
  9221     1365  00F3               	movwf	??_wave_out+2
  9222     1366  3023               	movlw	35
  9223     1367  00F4               	movwf	??_wave_out+3
  9224     1368  0871               	movf	??_wave_out,w
  9225     1369  0273               	subwf	??_wave_out+2,w
  9226     136A  0086               	movwf	6
  9227     136B  0872               	movf	??_wave_out+1,w
  9228     136C  3B74               	subwfb	??_wave_out+3,w
  9229     136D  0087               	movwf	7
  9230     136E  0801               	movf	1,w
  9231     136F  3CFE               	sublw	254
  9232     1370  3192  2242  3193   	fcall	_DAC_valueset
  9233     1373  2B74               	goto	i1l2646
  9234     1374                     i1l95:
  9235     1374                     i1l2646:
  9236                           
  9237                           ;main.c: 144:         i += step;
  9238     1374  0021               	movlb	1	; select bank1
  9239     1375  0869               	movf	_step^(0+128),w
  9240     1376  00F1               	movwf	??_wave_out
  9241     1377  0871               	movf	??_wave_out,w
  9242     1378  07F7               	addwf	wave_out@i,f
  9243     1379                     i1l2648:
  9244                           
  9245                           ;main.c: 145:         if (i >= 200) {
  9246     1379  30C8               	movlw	200
  9247     137A  0277               	subwf	wave_out@i,w
  9248     137B  1C03               	skipc
  9249     137C  2B7E               	goto	u322_21
  9250     137D  2B7F               	goto	u322_20
  9251     137E                     u322_21:
  9252     137E  2B8C               	goto	i1l101
  9253     137F                     u322_20:
  9254     137F                     i1l2650:
  9255                           
  9256                           ;main.c: 146:             i -= 200;
  9257     137F  30C8               	movlw	200
  9258     1380  02F7               	subwf	wave_out@i,f
  9259                           
  9260                           ;main.c: 147:             if (++stage >= 4) stage = 0;
  9261     1381  3001               	movlw	1
  9262     1382  00F1               	movwf	??_wave_out
  9263     1383  0871               	movf	??_wave_out,w
  9264     1384  07F6               	addwf	wave_out@stage,f
  9265     1385  3004               	movlw	4
  9266     1386  0276               	subwf	wave_out@stage,w
  9267     1387  1C03               	skipc
  9268     1388  2B8A               	goto	u323_21
  9269     1389  2B8B               	goto	u323_20
  9270     138A                     u323_21:
  9271     138A  2B8C               	goto	i1l101
  9272     138B                     u323_20:
  9273     138B                     i1l2652:
  9274     138B  01F6               	clrf	wave_out@stage
  9275     138C                     i1l101:
  9276     138C  0008               	return
  9277     138D                     __end_of_wave_out:
  9278                           
  9279                           	psect	text28
  9280     1242                     __ptext28:	
  9281 ;; *************** function _DAC_valueset *****************
  9282 ;; Defined at:
  9283 ;;		line 116 in file "main.c"
  9284 ;; Parameters:    Size  Location     Type
  9285 ;;  value           1    wreg     unsigned char 
  9286 ;; Auto vars:     Size  Location     Type
  9287 ;;  value           1    0[COMMON] unsigned char 
  9288 ;; Return value:  Size  Location     Type
  9289 ;;                  1    wreg      void 
  9290 ;; Registers used:
  9291 ;;		wreg
  9292 ;; Tracked objects:
  9293 ;;		On entry : 0/0
  9294 ;;		On exit  : 0/0
  9295 ;;		Unchanged: 0/0
  9296 ;; Data sizes:     COMMON   BANK0   BANK1   BANK2   BANK3   BANK4   BANK5   BANK6   BANK7   BANK8   BANK9  BANK10  BANK1
      +1  BANK12
  9297 ;;      Params:         0       0       0       0       0       0       0       0       0       0       0       0       
      +0       0
  9298 ;;      Locals:         1       0       0       0       0       0       0       0       0       0       0       0       
      +0       0
  9299 ;;      Temps:          0       0       0       0       0       0       0       0       0       0       0       0       
      +0       0
  9300 ;;      Totals:         1       0       0       0       0       0       0       0       0       0       0       0       
      +0       0
  9301 ;;Total ram usage:        1 bytes
  9302 ;; Hardware stack levels used: 1
  9303 ;; This function calls:
  9304 ;;		Nothing
  9305 ;; This function is called by:
  9306 ;;		_wave_out
  9307 ;; This function uses a non-reentrant model
  9308 ;;
  9309                           
  9310     1242                     _DAC_valueset:	
  9311                           ;psect for function _DAC_valueset
  9312                           
  9313                           
  9314                           ;incstack = 0
  9315                           ; Regs used in _DAC_valueset: [wreg]
  9316                           ;DAC_valueset@value stored from wreg
  9317     1242  00F0               	movwf	DAC_valueset@value
  9318     1243                     i1l2312:
  9319                           
  9320                           ;main.c: 118:  DAC1REFH = value;
  9321     1243  0870               	movf	DAC_valueset@value,w
  9322     1244  002B               	movlb	11	; select bank11
  9323     1245  0093               	movwf	19	;volatile
  9324                           
  9325                           ;main.c: 119:     DACLD = 0b00000001;
  9326     1246  3001               	movlw	1
  9327     1247  0090               	movwf	16	;volatile
  9328     1248                     i1l79:
  9329     1248  0008               	return
  9330     1249                     __end_of_DAC_valueset:
  9331     007E                     btemp	set	126	;btemp
  9332     007E                     int$flags	set	126
  9333     007E                     wtemp0	set	126
  9334     2328                     
  9335                           	psect	idloc
  9336                           
  9337                           ;Config register IDLOC0 @ 0x8000
  9338                           ;	unspecified, using default values
  9339     8000                     	org	32768
  9340     8000  3FFF               	dw	16383
  9341                           
  9342                           ;Config register IDLOC1 @ 0x8001
  9343                           ;	unspecified, using default values
  9344     8001                     	org	32769
  9345     8001  3FFF               	dw	16383
  9346                           
  9347                           ;Config register IDLOC2 @ 0x8002
  9348                           ;	unspecified, using default values
  9349     8002                     	org	32770
  9350     8002  3FFF               	dw	16383
  9351                           
  9352                           ;Config register IDLOC3 @ 0x8003
  9353                           ;	unspecified, using default values
  9354     8003                     	org	32771
  9355     8003  3FFF               	dw	16383
  9356                           
  9357                           	psect	config
  9358                           
  9359                           ;Config register CONFIG1 @ 0x8007
  9360                           ;	Oscillator Selection Bits
  9361                           ;	FOSC = HS, HS Oscillator, High-speed crystal/resonator connected between OSC1 and OSC2
      +                           pins
  9362                           ;	Watchdog Timer Enable
  9363                           ;	WDTE = OFF, WDT disabled
  9364                           ;	Power-up Timer Enable
  9365                           ;	PWRTE = OFF, PWRT disabled
  9366                           ;	MCLR Pin Function Select
  9367                           ;	MCLRE = ON, MCLR/VPP pin function is MCLR
  9368                           ;	Flash Program Memory Code Protection
  9369                           ;	CP = OFF, Program memory code protection is disabled
  9370                           ;	Brown-out Reset Enable
  9371                           ;	BOREN = ON, Brown-out Reset enabled
  9372                           ;	Clock Out Enable
  9373                           ;	CLKOUTEN = OFF, CLKOUT function is disabled. I/O or oscillator function on the CLKOUT 
      +                          pin
  9374                           ;	Internal/External Switchover Mode
  9375                           ;	IESO = OFF, Internal/External Switchover Mode is disabled
  9376                           ;	Fail-Safe Clock Monitor Enable
  9377                           ;	FCMEN = ON, Fail-Safe Clock Monitor is enabled
  9378     8007                     	org	32775
  9379     8007  2FE2               	dw	12258
  9380                           
  9381                           ;Config register CONFIG2 @ 0x8008
  9382                           ;	Flash Memory Self-Write Protection
  9383                           ;	WRT = OFF, Write protection off
  9384                           ;	Peripheral Pin Select one-way control
  9385                           ;	PPS1WAY = ON, The PPSLOCK bit cannot be cleared once it is set by software
  9386                           ;	Zero-cross detect disable
  9387                           ;	ZCD = OFF, Zero-cross detect circuit is disabled at POR
  9388                           ;	Phase Lock Loop enable
  9389                           ;	PLLEN = ON, 4x PLL is always enabled
  9390                           ;	Stack Overflow/Underflow Reset Enable
  9391                           ;	STVREN = ON, Stack Overflow or Underflow will cause a Reset
  9392                           ;	Brown-out Reset Voltage Selection
  9393                           ;	BORV = LO, Brown-out Reset Voltage (Vbor), low trip point selected.
  9394                           ;	Low-Power Brown Out Reset
  9395                           ;	LPBOR = OFF, Low-Power BOR is disabled
  9396                           ;	Low-Voltage Programming Enable
  9397                           ;	LVP = ON, Low-voltage programming enabled
  9398     8008                     	org	32776
  9399     8008  3FFF               	dw	16383

Data Sizes:
    Strings     13
    Constant    68
    Data        2
    BSS         12
    Persistent  32
    Stack       0

Auto Spaces:
    Space          Size  Autos    Used
    COMMON           14      6       9
    BANK0            80     80      80
    BANK1            80     73      74
    BANK2            80     39      49
    BANK3            80      0       0
    BANK4            80      0       0
    BANK5            80      0       0
    BANK6            80      0       0
    BANK7            80      0       0
    BANK8            80      0       0
    BANK9            80      0       0
    BANK10            8      0       0
    BANK11            0      0       0
    BANK12            0      0       0

Pointer List with Targets:

    __rem_pio2f@y	PTR  size(1) Largest target is 4
		 -> sinf@y(BANK2[4]), 

    lcd_puts@s	PTR const unsigned char  size(2) Largest target is 13
		 -> STR_1(CODE[13]), 


Critical Paths under _main in COMMON

    _main->___lwdiv
    _lcd_puts->_LCD_RS
    _lcd_putch->_LCD_RS
    _lcd_init->_LCD_RS
    _LCD_STROBE->_LCD_EN

Critical Paths under _isr in COMMON

    _isr->_wave_out
    _wave_out->_DAC_valueset

Critical Paths under _main in BANK0

    _sinf->___rem_pio2f
    ___sindf->___flneg
    ___rem_pio2f->___fltol
    ___fltol->___fldiv
    ___flsub->___fladd
    ___flneg->___cosdf
    ___cosdf->___fladd
    ___flmul->___xxtofl
    ___fladd->___flmul
    ___fldiv->___flmul
    _lcd_puts->_lcd_putch
    _lcd_putch->_lcd_data_set
    _lcd_init->_lcd_data_byteset
    _lcd_init->_lcd_data_set
    _lcd_data_set->_LCD_STROBE
    _lcd_data_byteset->_LCD_STROBE

Critical Paths under _isr in BANK0

    None.

Critical Paths under _main in BANK1

    _main->_sine_table_gen
    _sine_table_gen->_sinf
    _sinf->___rem_pio2f
    ___flneg->___cosdf

Critical Paths under _isr in BANK1

    None.

Critical Paths under _main in BANK2

    _main->_sine_table_gen
    _sine_table_gen->_sinf

Critical Paths under _isr in BANK2

    None.

Critical Paths under _main in BANK3

    None.

Critical Paths under _isr in BANK3

    None.

Critical Paths under _main in BANK4

    None.

Critical Paths under _isr in BANK4

    None.

Critical Paths under _main in BANK5

    None.

Critical Paths under _isr in BANK5

    None.

Critical Paths under _main in BANK6

    None.

Critical Paths under _isr in BANK6

    None.

Critical Paths under _main in BANK7

    None.

Critical Paths under _isr in BANK7

    None.

Critical Paths under _main in BANK8

    None.

Critical Paths under _isr in BANK8

    None.

Critical Paths under _main in BANK9

    None.

Critical Paths under _isr in BANK9

    None.

Critical Paths under _main in BANK10

    None.

Critical Paths under _isr in BANK10

    None.

Critical Paths under _main in BANK11

    None.

Critical Paths under _isr in BANK11

    None.

Critical Paths under _main in BANK12

    None.

Critical Paths under _isr in BANK12

    None.

Call Graph Tables:

 ---------------------------------------------------------------------------------
 (Depth) Function   	        Calls       Base Space   Used Autos Params    Refs
 ---------------------------------------------------------------------------------
 (0) _main                                                 3     3      0   82162
                                             71 BANK1      2     2      0
                           _DAC_init
                         _Timer_init
                            ___lwdiv
                           _lcd_init
                           _lcd_puts
                     _sine_table_gen
 ---------------------------------------------------------------------------------
 (1) _sine_table_gen                                      14    14      0   80905
                                             67 BANK1      4     4      0
                                             30 BANK2      9     9      0
                            ___fldiv
                            ___flmul
                            ___fltol
                           ___xxtofl
                               _sinf
 ---------------------------------------------------------------------------------
 (2) _sinf                                                38    34      4   70178
                                             59 BANK1      8     4      4
                                              0 BANK2     30    30      0
                            ___cosdf
                            ___fladd
                            ___fldiv (ARG)
                            ___flneg
                            ___flsub
                        ___rem_pio2f
                            ___sindf
 ---------------------------------------------------------------------------------
 (3) ___sindf                                             32    28      4   14642
                                             68 BANK0      4     0      4
                                             24 BANK1     28    28      0
                            ___fladd
                            ___flmul
                            ___flneg (ARG)
 ---------------------------------------------------------------------------------
 (3) ___rem_pio2f                                         43    38      5   24875
                                             76 BANK0      4     4      0
                                             24 BANK1     35    30      5
                            ___fladd
                            ___flmul
                            ___flneg
                            ___flsub
                            ___fltol
                           ___xxtofl
                              _fabsf
 ---------------------------------------------------------------------------------
 (4) _fabsf                                                8     4      4     251
                                              0 BANK0      8     4      4
 ---------------------------------------------------------------------------------
 (4) ___xxtofl                                            14    10      4     746
                                              0 BANK0     14    10      4
 ---------------------------------------------------------------------------------
 (4) ___fltol                                             10     6      4     607
                                             66 BANK0     10     6      4
                            ___fladd (ARG)
                            ___fldiv (ARG)
                            ___flmul (ARG)
                           ___xxtofl (ARG)
 ---------------------------------------------------------------------------------
 (4) ___flsub                                              8     0      8    7507
                                             60 BANK0      8     0      8
                            ___fladd
                            ___flmul (ARG)
 ---------------------------------------------------------------------------------
 (4) ___flneg                                              4     0      4     785
                                             64 BANK0      4     0      4
                            ___cosdf (ARG)
                            ___fladd (ARG)
 ---------------------------------------------------------------------------------
 (3) ___cosdf                                             28    24      4   14636
                                             60 BANK0      4     0      4
                                              0 BANK1     24    24      0
                            ___fladd
                            ___flmul
 ---------------------------------------------------------------------------------
 (4) ___flmul                                             26    18      8    7313
                                             14 BANK0     26    18      8
                          __Umul8_16
                           ___xxtofl (ARG)
 ---------------------------------------------------------------------------------
 (5) __Umul8_16                                            9     7      2     980
                                              0 BANK0      9     7      2
 ---------------------------------------------------------------------------------
 (4) ___fladd                                             20    12      8    6362
                                             40 BANK0     20    12      8
                            ___flmul (ARG)
 ---------------------------------------------------------------------------------
 (2) ___fldiv                                             26    18      8    1863
                                             40 BANK0     26    18      8
                            ___flmul (ARG)
                           ___xxtofl (ARG)
 ---------------------------------------------------------------------------------
 (1) _lcd_puts                                             3     1      2     314
                                              5 BANK0      3     1      2
                             _LCD_RS
                          _lcd_putch
 ---------------------------------------------------------------------------------
 (2) _lcd_putch                                            1     1      0     137
                                              4 BANK0      1     1      0
                             _LCD_RS
                       _lcd_data_set
 ---------------------------------------------------------------------------------
 (1) _lcd_init                                             1     1      0     159
                                              4 BANK0      1     1      0
                             _LCD_RS
                   _lcd_data_byteset
                       _lcd_data_set
 ---------------------------------------------------------------------------------
 (3) _lcd_data_set                                         3     3      0      84
                                              1 BANK0      3     3      0
                         _LCD_STROBE
 ---------------------------------------------------------------------------------
 (2) _lcd_data_byteset                                     3     3      0      53
                                              1 BANK0      3     3      0
                         _LCD_STROBE
 ---------------------------------------------------------------------------------
 (4) _LCD_STROBE                                           1     1      0      22
                                              0 BANK0      1     1      0
                             _LCD_EN
 ---------------------------------------------------------------------------------
 (5) _LCD_EN                                               1     1      0      22
                                              5 COMMON     1     1      0
 ---------------------------------------------------------------------------------
 (3) _LCD_RS                                               1     1      0      22
                                              5 COMMON     1     1      0
 ---------------------------------------------------------------------------------
 (1) ___lwdiv                                              8     4      4     781
                                              5 COMMON     1     1      0
                                              0 BANK0      7     3      4
 ---------------------------------------------------------------------------------
 (1) _Timer_init                                           0     0      0       0
 ---------------------------------------------------------------------------------
 (1) _DAC_init                                             0     0      0       0
 ---------------------------------------------------------------------------------
 Estimated maximum stack depth 5
 ---------------------------------------------------------------------------------
 (Depth) Function   	        Calls       Base Space   Used Autos Params    Refs
 ---------------------------------------------------------------------------------
 (6) _isr                                                  0     0      0      22
                           _wave_out
 ---------------------------------------------------------------------------------
 (7) _wave_out                                             4     4      0      22
                                              1 COMMON     4     4      0
                       _DAC_valueset
 ---------------------------------------------------------------------------------
 (8) _DAC_valueset                                         1     1      0      22
                                              0 COMMON     1     1      0
 ---------------------------------------------------------------------------------
 Estimated maximum stack depth 8
 ---------------------------------------------------------------------------------

 Call Graph Graphs:

 _main (ROOT)
   _DAC_init
   _Timer_init
   ___lwdiv
   _lcd_init
     _LCD_RS
     _lcd_data_byteset
       _LCD_STROBE
         _LCD_EN
     _lcd_data_set
       _LCD_STROBE
   _lcd_puts
     _LCD_RS
     _lcd_putch
       _LCD_RS
       _lcd_data_set
   _sine_table_gen
     ___fldiv
       ___flmul (ARG)
         __Umul8_16
         ___xxtofl (ARG)
       ___xxtofl (ARG)
     ___flmul
     ___fltol
       ___fladd (ARG)
         ___flmul (ARG)
       ___fldiv (ARG)
       ___flmul (ARG)
       ___xxtofl (ARG)
     ___xxtofl
     _sinf
       ___cosdf
         ___fladd
         ___flmul
       ___fladd
       ___fldiv (ARG)
       ___flneg (ARG)
         ___cosdf (ARG)
         ___fladd (ARG)
       ___flsub (ARG)
         ___fladd
         ___flmul (ARG)
       ___rem_pio2f (ARG)
         ___fladd
         ___flmul
         ___flneg
         ___flsub
         ___fltol
         ___xxtofl
         _fabsf
       ___sindf (ARG)
         ___fladd
         ___flmul
         ___flneg (ARG)

 _isr (ROOT)
   _wave_out
     _DAC_valueset

 Address spaces:
Name               Size   Autos  Total    Cost      Usage
BIGRAM             3F0      0       0       0        0.0%
NULL                 0      0       0       0        0.0%
CODE                 0      0       0       0        0.0%
BITCOMMON            E      0       0       1        0.0%
BITSFR0              0      0       0       1        0.0%
SFR0                 0      0       0       1        0.0%
COMMON               E      6       9       2       64.3%
BITSFR1              0      0       0       2        0.0%
SFR1                 0      0       0       2        0.0%
BITSFR2              0      0       0       3        0.0%
SFR2                 0      0       0       3        0.0%
STACK                0      0       0       3        0.0%
BITBANK0            50      0       0       4        0.0%
BITSFR3              0      0       0       4        0.0%
SFR3                 0      0       0       4        0.0%
BANK0               50     50      50       5      100.0%
BITSFR4              0      0       0       5        0.0%
SFR4                 0      0       0       5        0.0%
BITBANK1            50      0       0       6        0.0%
BITSFR5              0      0       0       6        0.0%
SFR5                 0      0       0       6        0.0%
BANK1               50     49      4A       7       92.5%
BITSFR6              0      0       0       7        0.0%
SFR6                 0      0       0       7        0.0%
BITBANK2            50      0       0       8        0.0%
BITSFR7              0      0       0       8        0.0%
SFR7                 0      0       0       8        0.0%
BANK2               50     27      31       9       61.3%
BITSFR8              0      0       0       9        0.0%
SFR8                 0      0       0       9        0.0%
BITBANK3            50      0       0      10        0.0%
BITSFR9              0      0       0      10        0.0%
SFR9                 0      0       0      10        0.0%
BANK3               50      0       0      11        0.0%
BITSFR10             0      0       0      11        0.0%
SFR10                0      0       0      11        0.0%
BITBANK4            50      0       0      12        0.0%
BITSFR11             0      0       0      12        0.0%
SFR11                0      0       0      12        0.0%
BANK4               50      0       0      13        0.0%
BITSFR12             0      0       0      13        0.0%
SFR12                0      0       0      13        0.0%
BITBANK5            50      0       0      14        0.0%
BITSFR13             0      0       0      14        0.0%
SFR13                0      0       0      14        0.0%
BANK5               50      0       0      15        0.0%
BITSFR14             0      0       0      15        0.0%
SFR14                0      0       0      15        0.0%
BITBANK6            50      0       0      16        0.0%
BITSFR15             0      0       0      16        0.0%
SFR15                0      0       0      16        0.0%
BANK6               50      0       0      17        0.0%
BITSFR16             0      0       0      17        0.0%
SFR16                0      0       0      17        0.0%
BITBANK7            50      0       0      18        0.0%
BITSFR17             0      0       0      18        0.0%
SFR17                0      0       0      18        0.0%
BANK7               50      0       0      19        0.0%
BITSFR18             0      0       0      19        0.0%
SFR18                0      0       0      19        0.0%
BITSFR19             0      0       0      20        0.0%
SFR19                0      0       0      20        0.0%
ABS                  0      0      D4      20        0.0%
BITBANK8            50      0       0      21        0.0%
BITSFR20             0      0       0      21        0.0%
SFR20                0      0       0      21        0.0%
BANK8               50      0       0      22        0.0%
BITSFR21             0      0       0      22        0.0%
SFR21                0      0       0      22        0.0%
BITBANK9            50      0       0      23        0.0%
BITSFR22             0      0       0      23        0.0%
SFR22                0      0       0      23        0.0%
BANK9               50      0       0      24        0.0%
BITSFR23             0      0       0      24        0.0%
SFR23                0      0       0      24        0.0%
BITBANK10           50      0       0      25        0.0%
BITSFR24             0      0       0      25        0.0%
SFR24                0      0       0      25        0.0%
BANK10               8      0       0      26        0.0%
BITSFR25             0      0       0      26        0.0%
SFR25                0      0       0      26        0.0%
BITBANK11           50      0       0      27        0.0%
BITSFR26             0      0       0      27        0.0%
SFR26                0      0       0      27        0.0%
BITSFR27             0      0       0      28        0.0%
SFR27                0      0       0      28        0.0%
BANK11               0      0       0      28        0.0%
BITBANK12           30      0       0      29        0.0%
BITSFR28             0      0       0      29        0.0%
SFR28                0      0       0      29        0.0%
BITSFR29             0      0       0      30        0.0%
SFR29                0      0       0      30        0.0%
BANK12               0      0       0      30        0.0%
BITSFR30             0      0       0      31        0.0%
SFR30                0      0       0      31        0.0%
DATA                 0      0      D4      31        0.0%
BITSFR31             0      0       0      32        0.0%
SFR31                0      0       0      32        0.0%


Microchip Technology PIC Macro Assembler V2.40 build 20220703182018 
Symbol Table                                                                                   Sat Nov 12 15:34:49 2022

            LCD_EN@enable 0075              ___fldiv@aexp 0061              ___fldiv@bexp 0060  
            ___fldiv@sign 0059                        _C0 1841                        _C1 183D  
                      _C2 1839                        _C3 1835                        l73 128A  
                      _S1 181D                        l76 124F                        l84 1667  
                      _S2 1819                        _S3 1815                        _S4 1811  
     __Umul8_16@word_mpld 0026                       l120 125A                       l123 0811  
                     l117 1265                       l126 129D                       l135 07FE  
                     l129 12D8                       l138 1502                       l147 12BA  
                     l412 13FD                       l422 13FD                       l408 1271  
                     l523 0C90                       l419 13E8                       l540 0D20  
                     l532 0DC4                       l525 0C6E                       l621 0F7F  
                     l550 0D64                       l519 0C13                       l615 0FFF  
                     l711 0339                       l703 01EC                       l544 0D42  
                     l561 0DBD                       l553 0D9B                       l562 0DC4  
                     l634 130C                       l627 0FF3                       l636 131C  
                     l565 12F8                       l661 15AD                       l591 097E  
                     l575 08A0                       l672 1579                       l577 09F8  
                     l729 17FF                       l673 1585                       l665 155F  
                     l761 0BBC                       l498 084E                       l659 1526  
                     l747 07C5                       l691 0035                       l596 09CA  
                     l597 09E4                       l766 07EE                       l599 09F1  
                     l695 048A                       _GIE 005F                       _RA2 0062  
                     _RC5 0075                       _RC7 0077                       _PR2 001B  
                     _isr 0004                       wreg 0009              ___flmul@aexp 003C  
            ___flmul@bexp 0041             lcd_data_set@c 0023              ___flmul@sign 003B  
            ___flmul@temp 0046              ___flmul@prod 0042            ??_lcd_data_set 0021  
    __end_of_DAC_valueset 1249              ___fltol@exp1 006B                      l3000 1318  
                    l3010 1266                      l3004 0800                      l3100 0E1E  
                    l3012 126F                      l3020 1397                      l3006 0804  
                    l3110 0E57                      l3014 1271                      l3030 13BA  
                    l3008 080D                      l3120 0E9D                      l3112 0E64  
                    l3104 0E27                      l3040 13C8                      l3032 13BC  
                    l3024 13A0                      l3200 1505                      l3130 0ED3  
                    l3122 0EA8                      l3114 0E7C                      l3106 0E32  
                    l3050 13ED                      l3034 13C0                      l3042 13D8  
                    l3026 13B1                      l3018 138D                      l3202 150A  
                    l2236 1251                      l3140 0F1E                      l3132 0EDA  
                    l3124 0EAF                      l3116 0E89                      l3108 0E3F  
                    l3060 0DC5                      l3052 13F2                      l3028 13B2  
                    l3220 1550                      l3212 1537                      l3204 150E  
                    l3300 0694                      l3150 0F53                      l3142 0F35  
                    l3134 0EEC                      l3126 0EBA                      l3118 0E96  
                    l3070 0DD5                      l3062 0DC9                      l3054 12D9  
                    l3230 157D                      l3222 1558                      l3214 153A  
                    l3206 151E                      l3310 0797                      l3302 06DE  
                    l2600 1284                      l3160 0F64                      l3152 0F54  
                    l3144 0F3C                      l3136 0EF7                      l3128 0EC1  
                    l3080 0DF1                      l3072 0DDA                      l3064 0DCB  
                    l3056 12DC                      l3048 13DF                      l3240 15A5  
                    l3232 1587                      l3224 1566                      l3216 1545  
                    l3208 152E                      l3304 0701                      l3400 03FD  
                    l2602 1249                      l3250 12C4                      l3170 0F89  
                    l3162 0F68                      l3154 0F5B                      l3146 0F48  
                    l3138 0F09                      l3090 0E02                      l3082 0DF3  
                    l3074 0DE2                      l3066 0DCF                      l3234 159B  
                    l3226 156F                      l3218 154C                      l3306 0749  
                    l3410 045D                      l3330 0087                      l3322 0035  
                    l3252 12C7                      l3500 090C                      l3180 0FBE  
                    l3172 0F91                      l3164 0F7C                      l3148 0F4F  
                    l3156 0F5F                      l3092 0E0A                      l3084 0DF7  
                    l3076 0DE4                      l3068 0DD0                      l3236 15A0  
                    l3228 1573                      l3244 07C6                      l3316 07B8  
                    l3308 0791                      l3404 042D                      l3340 00C6  
                    l3332 0088                      l3324 004D                      l3430 07FA  
                    l3510 092B                      l3502 0910                      l3190 0FEC  
                    l3182 0FC8                      l3174 0F95                      l3158 0F63  
                    l3094 0E0C                      l3086 0DF8                      l3078 0DEC  
                    l3238 15A4                      l3270 0505                      l3262 048B  
                    l3254 09F9                      l3342 00CD                      l3326 006A  
                    l3424 128D                      l3248 12BD                      l3600 14FE  
                    l3520 0947                      l3512 0933                      l3504 0911  
                    l3440 085A                      l3432 084F                      l2800 0BC3  
                    l3192 0FF0                      l3184 0FD6                      l3176 0FAD  
                    l3168 0F84                      l3096 0E14                      l3088 0DFD  
                    l3280 0583                      l3264 04A3                      l3352 0176  
                    l3360 020F                      l3328 007E                      l3336 00AC  
                    l3426 129A                      l3522 094E                      l3530 095E  
                    l3506 0918                      l3514 0937                      l3442 085F  
                    l3450 086F                      l3434 0853                      l2810 0BDA  
                    l2802 0BC7                      l3194 0FF1                      l3186 0FDF  
                    l3178 0FB1                      l3098 0E19                      l3258 1668  
                    l3290 0659                      l3282 05A6                      l3274 0509  
                    l3266 04C0                      l3362 021C                      l3354 017D  
                    l3338 00B9                      l3610 1601                      l3602 15AE  
                    l3428 07F1                      l3620 12A3                      l3532 0962  
                    l3524 0952                      l3516 093D                      l3508 092A  
                    l3460 0883                      l3452 0877                      l3444 0864  
                    l3436 0855                      l2900 0CA2                      l2820 0BEE  
                    l2812 0BDB                      l2804 0BC8                      l3196 0FF7  
                    l3188 0FE1                      l3284 05EE                      l3276 0516  
                    l3268 04D4                      l3380 030D                      l3372 027F  
                    l3364 0229                      l3356 01B5                      l3348 0127  
                    l3612 1623                      l3630 0812                      l1782 125C  
                    l3622 12AB                      l3550 09AC                      l3542 0983  
                    l3534 0963                      l3526 0953                      l3518 0945  
                    l3462 0888                      l3470 0898                      l3454 087C  
                    l3446 086C                      l3438 0859                      l2910 0CB8  
                    l2902 0CAA                      l2830 0BFB                      l2822 0BEF  
                    l2806 0BCD                      l2814 0BDD                      l3294 066C  
                    l3286 0634                      l3278 0539                      l3390 0399  
                    l3366 0230                      l3614 165C                      l3640 0827  
                    l3632 0815                      l3624 12B0                      l3560 09E3  
                    l3544 0988                      l3552 09B0                      l3536 0967  
                    l3528 095A                      l3472 08A8                      l3480 08C1  
                    l3464 088D                      l3456 087E                      l3448 086D  
                    l2920 0CE0                      l2912 0CBC                      l2904 0CAE  
                    l2840 0C19                      l2832 0C00                      l2824 0BF1  
                    l2816 0BE5                      l2808 0BD2                      l3288 063B  
                    l3392 03B5                      l3376 02D9                      l3384 035C  
                    l3616 1661                      l3608 15B0                      l2594 127E  
                    l3650 0844                      l3642 082B                      l3634 081B  
                    l3618 129E                      l3562 09E7                      l3554 09BD  
                    l3546 0990                      l3538 097B                      l3490 08E7  
                    l3482 08C6                      l3474 08B4                      l3466 0895  
                    l3458 0882                      l2930 0D28                      l2922 0D04  
                    l2914 0CBD                      l2906 0CB2                      l2850 0C27  
                    l2842 0C1D                      l2834 0C08                      l2826 0BF5  
                    l2818 0BE8                      l3298 0671                      l3386 0365  
                    l3378 02E0                      l2596 1281                      l3644 083A  
                    l3636 081E                      l3652 084A                      l3580 149F  
                    l3572 147D                      l3564 09EB                      l3556 09D8  
                    l3548 0994                      l3492 08EF                      l3476 08B8  
                    l3468 0896                      l2940 0D41                      l2932 0D2D  
                    l2924 0D0A                      l2916 0CC5                      l2908 0CB6  
                    l2860 0C31                      l2852 0C29                      l2844 0C21  
                    l2836 0C09                      l2828 0BF6                      l3396 03D9  
                    l3660 1406                      l2598 1283                      l3646 083E  
                    l3638 0823                      l3590 14CE                      l3582 14AC  
                    l3574 1481                      l3566 09ED                      l3558 09DB  
                    l3494 08F7                      l3486 08CF                      l2942 0D46  
                    l2950 0D52                      l2926 0D0F                      l2918 0CCA  
                    l2870 0C3B                      l2862 0C33                      l2854 0C2B  
                    l2846 0C23                      l2838 0C0B                      l3670 1410  
                    l3662 1408                      l3648 083F                      l3592 14D7  
                    l3584 14B0                      l3576 1489                      l3496 08F9  
                    l3488 08DF                      l2944 0D49                      l2936 0D36  
                    l2928 0D18                      l2952 0D56                      l2880 0C72  
                    l2872 0C3D                      l2864 0C35                      l2856 0C2D  
                    l2848 0C25                      l3680 1424                      l3672 1413  
                    l3664 1409                      l3656 13FE                      l3594 14E4  
                    l3586 14BD                      l3578 1496                      l3498 08FE  
                    l2970 0D97                      l2962 0D69                      l2954 0D57  
                    l2946 0D4B                      l2938 0D3D                      l2890 0C85  
                    l2882 0C76                      l2866 0C37                      l2858 0C2F  
                    l2874 0C3F                      l3690 1457                      l3682 1434  
                    l3674 1417                      l3666 140A                      l3658 1404  
                    l3596 14E8                      l3588 14C6                      l2980 0DB3  
                    l2972 0DA0                      l2964 0D6E                      l2956 0D5B  
                    l2948 0D50                      l2884 0C78                      l2892 0C89  
                    l2876 0C40                      l2868 0C39                      l2796 0BBD  
                    l3764 0475                      l3692 1459                      l3684 1439  
                    l3676 141F                      l3668 140D                      l3598 14F5  
                    l2982 0DB7                      l2974 0DA5                      l2966 0D76  
                    l2958 0D61                      l2894 0C94                      l2886 0C7C  
                    l2878 0C57                      l2798 0BC1                      l2990 12FB  
                    l3766 0485                      l3694 145E                      l3686 1449  
                    l3678 141F                      l2984 0DB9                      l2976 0DAD  
                    l2968 0D7A                      l2896 0C99                      l2888 0C7D  
                    l2992 12FD                      l3768 047A                      l3696 146E  
                    l3688 144B                      l2986 0DBF                      l2978 0DB2  
                    l2994 1304                      l2988 0DC3                      l2996 1308  
                    l2998 1313                      ?_isr 0070                      STR_1 1804  
                    u4100 0FA3                      u4020 0F53                      u4021 0F52  
                    u4005 0F36                      u3310 0BC7                      u4110 0FBE  
                    u3311 0BC6                      u4111 0FBD                      u4015 0F49  
                    u3400 0C57                      u3320 0BCD                      u4120 0FD6  
                    u4040 0F63                      u4200 1565                      u3401 0C56  
                    u3321 0BCC                      u4121 0FD5                      u4105 0F9F  
                    u4041 0F62                      u4201 1564                      u3410 0C61  
                    u3330 0BD2                      u4130 0FF0                      u4050 0F68  
                    u3411 0C5F                      u3331 0BD1                      u4131 0FEF  
                    u4115 0FBA                      u4051 0F67                      u4035 0F55  
                    u1660 1263                      u3500 0CB2                      u3420 0C62  
                    u3340 0BEE                      u4060 0F7C                      u4220 1573  
                    u4140 150A                      u4300 04D4                      u1661 1260  
                    u3501 0CB1                      u3405 0C53                      u3341 0BED  
                    u4125 0FD2                      u4061 0F7B                      u4221 1572  
                    u4141 1509                      u4301 04D3                      u3510 0CBC  
                    u3430 0C72                      u3350 0BF5                      u4070 0F83  
                    u4230 1579                      u4150 150E                      u4310 0516  
                    u3511 0CBB                      u3431 0C71                      u3351 0BF4  
                    u4071 0F82                      u4231 1578                      u4215 1569  
                    u4151 150D                      u4311 0515                      u3600 0D50  
                    u3440 0C7C                      u3360 0BFB                      u4080 0F89  
                    u4240 157D                      u4160 152E                      u4320 063B  
                    u4400 017D                      u3601 0D4F                      u3441 0C7B  
                    u3361 0BFA                      u4081 0F88                      u4241 157C  
                    u4161 152D                      u4321 063A                      u4401 017C  
                    u2650 1258                      u1674 1265                      u3610 0D56  
                    u3530 0CE0                      u3370 0C00                      u4090 0F95  
                    u4250 1591                      u4330 0797                      u4410 021C  
                    u2651 1255                      u3611 0D55                      u3531 0CDF  
                    u3371 0BFF                      u4091 0F94                      u4331 0796  
                    u4411 021B                      u4500 0882                      u3700 0DA5  
                    u3620 0D5B                      u3540 0D0F                      u3460 0C90  
                    u3380 0C19                      u4260 15A0                      u4180 154B  
                    u4420 0229                      u4340 0061                      u4501 0881  
                    u3701 0DA4                      u3621 0D5A                      u3541 0D0E  
                    u3533 0CDC                      u3525 0CBF                      u3461 0C8F  
                    u3381 0C18                      u4261 159F                      u4181 154A  
                    u4421 0228                      u4510 0888                      u3710 0DB2  
                    u3630 0D61                      u3550 0D28                      u3470 0C94  
                    u3390 0C1D                      u4270 15A4                      u4430 0230  
                    u4350 007E                      u4511 0887                      u3711 0DB1  
                    u3631 0D60                      u3551 0D27                      u3471 0C93  
                    u3455 0C7F                      u3391 0C1C                      u4271 15A3  
                    u4255 158D                      u4175 153F                      u4431 022F  
                    u4351 007D                      u2664 125A                      u4600 092A  
                    u4520 088D                      u3720 0DB7                      u3640 0D68  
                    u3560 0D2D                      u3480 0C99                      u3800 13C0  
                    u4440 02E0                      u4360 0087                      u4601 0929  
                    u4521 088C                      u3721 0DB6                      u3641 0D67  
                    u3561 0D2C                      u3481 0C98                      u3801 13BF  
                    u4441 02DF                      u4361 0086                      u4345 005D  
                    u4610 093D                      u4530 08A8                      u3730 0DC3  
                    u3650 0D6E                      u3490 0CAE                      u3810 13C7  
                    u4290 04B7                      u4450 0365                      u4370 00B9  
                    u4611 093C                      u4531 08A7                      u3731 0DC2  
                    u3651 0D6D                      u3491 0CAD                      u3811 13C6  
                    u4195 1559                      u4451 0364                      u4371 00B8  
                    _PEIE 005E                      u4700 0988                      u4620 0945  
                    u4540 08C6                      u3660 0D7A                      u3580 0D41  
                    u3740 1308                      u3900 0DDA                      u4380 00C6  
                    u4285 12CB                      u4701 0987                      u4621 0944  
                    u4605 0926                      u4541 08C5                      u3661 0D79  
                    u3581 0D40                      u3741 1307                      u3901 0DD9  
                    u4381 00C5                      u4710 0994                      u4550 08FE  
                    u4470 0859                      u3670 0D88                      u3590 0D46  
                    u3910 0DF7                      u3830 13D7                      u4390 00CD  
                    u4711 0993                      u4551 08FD                      u4471 0858  
                    u3591 0D45                      u3575 0D37                      u3911 0DF6  
                    u3831 13D6                      u4295 04B3                      u4391 00CC  
                    u4800 082B                      u4720 09A2                      u4640 0952  
                    u4480 085F                      u3680 0D97                      u3760 1318  
                    u3920 0DFD                      u3840 13DE                      u4801 082A  
                    u4465 1290                      u4641 0951                      u4481 085E  
                    u3681 0D96                      u3761 1317                      u3921 0DFC  
                    u3841 13DD                      u3825 13C9                      u4730 09BD  
                    u4490 0864                      u3690 0DA0                      u3930 0E02  
                    u3770 126F                      u4731 09BC                      u4635 0948  
                    u4491 0863                      u3691 0D9F                      u3675 0D84  
                    u3755 130D                      u3931 0E01                      u3771 126E  
                    u4820 083A                      u4740 09D8                      u4660 0962  
                    u4580 0910                      u3940 0E19                      u3860 13ED  
                    u3780 1397                      u4821 0839                      u4741 09D7  
                    u4725 099E                      u4661 0961                      u4581 090F  
                    u4565 08FF                      u3941 0E18                      u3861 13EC  
                    u3781 1396                      u4750 09EB                      u4670 0967  
                    u3950 0E1E                      u3870 13F2                      u3790 13AD  
                    u4815 082C                      u4751 09EA                      u4735 09B9  
                    u4671 0966                      u4655 0954                      u4575 0906  
                    u3951 0E1D                      u3871 13F1                      u3855 13E0  
                    u4840 084A                      u4680 097B                      u3880 0DCF  
                    u4760 1667                      u4841 0849                      u4825 0836  
                    u4745 09D4                      u4681 097A                      u3881 0DCE  
                    u4761 1666                      u4770 12BA                      u4690 0982  
                    u3890 0DD5                      u4835 0840                      u4907 149A  
                    u4771 12B9                      u4691 0981                      u4595 0912  
                    u3891 0DD4                      u3795 13A9                      u4780 081B  
                    u3980 0F14                      u4781 081A                      u4917 14A7  
                    u3965 0E97                      u3990 0F2B                      i1l79 1248  
                    i1l95 1374                      u4927 14B4                      u3975 0EC2  
                    u4937 14C1                      u3985 0F10                      u4857 1451  
                    u4795 081F                      u4947 14C7                      u3995 0F27  
                    u4867 1474                      u4957 14D2                      u4877 07FB  
                    u4967 14DF                      u4887 1485                      u4977 14EC  
                    u4897 148D                      u4987 14F9                      u4997 0808  
                    _half 182D                      _main 13FE                      _freq 014F  
                    _sinf 0035                      fsr0h 0005                      fsr1h 0007  
                    indf0 0000                      fsr0l 0004                      indf1 0001  
                    fsr1l 0006                      _step 00E9                      btemp 007E  
        _lcd_data_byteset 128B                      start 000D           ___fldiv@new_exp 005A  
        __end_of_DAC_init 1250              LCD_RS@enable 0075                     ??_isr 0075  
           ___fltol@sign1 006A           __end_of___fladd 0DC5                     ?_main 0070  
                   _DACLD 0590           __end_of___fldiv 09F9           __end_of___cosdf 1800  
         __end_of___flneg 1272                     ?_sinf 00DB           __end_of___flmul 1000  
         __end_of___flsub 12F9           __end_of___fltol 13FE                     _T2CON 001C  
         __end_of___lwdiv 084F                     i1l101 138C           __end_of___sindf 0BBD  
                   i1l106 000B                     _PORTA 000C                     _PORTB 000D  
                   _PORTC 000E                     _TRISA 008C                     _TRISB 008D  
                   _TRISC 008E           __end_of_pio2_1t 1825                     _fabsf 07C6  
         __end_of_invpio2 182D                     _toint 1831                     sinf@n 0120  
                   sinf@x 00DB                     sinf@y 0136                     status 0003  
                   wtemp0 007E             wave_out@stage 0076           __initialization 000F  
            __end_of_half 1831              __end_of_main 147D              __end_of_sinf 048B  
                  ??_main 00E7                    ??_sinf 00DF                    ?_fabsf 0020  
                  _ANSELA 018C                    _ANSELC 018E                    _LCD_EN 125B  
                  _LCD_RS 1250                    i1l2312 1243                    i1l2630 1322  
                  i1l2640 134F                    i1l2632 1327                    i1l2650 137F  
                  i1l2642 135B                    i1l2634 1332                    i1l2652 138B  
                  i1l2644 1361                    i1l2636 1337                    i1l2628 131D  
                  i1l2638 1349                    i1l2646 1374                    i1l2726 0006  
                  i1l2648 1379                    i1l2728 0008                    u320_20 134F  
                  u320_21 134E                    u321_20 1361                    u321_21 1360  
                  u322_20 137F                    u322_21 137E                    u323_20 138B  
                  _FVRCON 021E                    u323_21 138A                    u317_20 1322  
                  u317_21 1321                    u318_20 1327                    u318_21 1326  
                  u319_20 1337                    u319_21 1336             ___rem_pio2f@n 00D7  
           ___rem_pio2f@t 00D3             ___rem_pio2f@u 00C7             ___rem_pio2f@x 00B8  
           ___rem_pio2f@y 00BC                    _TMR2IE 0489                    _TMR2IF 0089  
        __end_of___xxtofl 15AE          __end_of_lcd_init 1503                    _s1pio2 1800  
                  _s2pio2 184D                    _s3pio2 1849                    _s4pio2 1845  
        __end_of_lcd_puts 12BB                 ??___fladd 0050      __end_of_lcd_data_set 12D9  
               ??___fldiv 0050                 ??___cosdf 0075                 ??___flneg 0075  
               ??___flmul 0036                 ??___flsub 0075                 ??___fltol 0066  
               ??___lwdiv 0075                 ??___sindf 0075                    _pio2_1 1825  
                  fabsf@u 0024                    fabsf@x 0020                _Timer_init 127E  
                  sinf@ix 013A          __end_of_wave_out 138D                 ?_DAC_init 0070  
            ___xxtofl@arg 002A              ___xxtofl@exp 0029              ___xxtofl@val 0020  
 __end_of__initialization 0031                ___flneg@f1 0060                ___fltol@f1 0062  
            ??_LCD_STROBE 0020            __pcstackCOMMON 0070              __pidataBANK2 0002  
            _DAC_valueset 1242             __end_of_fabsf 07EF             __end_of_toint 1835  
              __end_of_C0 1845                __end_of_C1 1841                __end_of_C2 183D  
              __end_of_C3 1839                __end_of_S1 1821                __end_of_S2 181D  
              __end_of_S3 1819                __end_of_S4 1815         sine_table_gen@amp 0070  
__end_of_lcd_data_byteset 129E                ??_DAC_init 0075                   ??_fabsf 0075  
      __end_of_LCD_STROBE 0812                __pbssBANK1 00E9                __pbssBANK2 0147  
                 ?_LCD_EN 0070                   ?_LCD_RS 0070           sine_table_gen@i 0146  
       __end_of__Umul8_16 131D                __pmaintext 13FE                __pintentry 0004  
           ??___rem_pio2f 006C               ?_Timer_init 0070                 ?___xxtofl 0020  
          ___rem_pio2f@fn 00CF            ___rem_pio2f@ix 00C1            ___rem_pio2f@ty 00BD  
               ?_lcd_init 0070                 ?_lcd_puts 0025                   ___fladd 0BBD  
               ?_wave_out 0070         __end_of_lcd_putch 07FF                   ___fldiv 084F  
                 ___cosdf 1668                   ___flneg 1266                   ___flmul 0DC5  
                 ___flsub 12D9                   ___fltol 138D                   ___lwdiv 0812  
                 ___sindf 09F9                   __ptext1 15AE                   __ptext2 0035  
                 __ptext3 09F9                   __ptext4 048B                   __ptext5 07C6  
                 __ptext6 1503                   __ptext7 138D                   __ptext8 12D9  
                 __ptext9 1266                   _pio2_1t 1821                ??___xxtofl 0024  
     __end_of___rem_pio2f 07C6                   _invpio2 1829                   clrloop0 1273  
              ??_lcd_init 0024              _lcd_data_set 12BB                ??_lcd_puts 0027  
    end_of_initialization 0031          ___rem_pio2f@F532 014B          ___rem_pio2f@sign 00C5  
              _sine_table 2328                ??_wave_out 0071               ___fladd@grs 005B  
             ___cosdf$690 00A8               ___cosdf$691 00AC               ___cosdf$689 00A4  
           ___xxtofl@sign 0028               ___fldiv@grs 005C               ___fldiv@rem 0055  
             ___flmul@grs 003D            __end_of_LCD_EN 1266            __end_of_LCD_RS 125B  
              lcd_putch@c 0024            __end_of_s1pio2 1804            __end_of_s2pio2 1851  
          __end_of_s3pio2 184D            __end_of_s4pio2 1849         lcd_data_byteset@c 0023  
             ___rem_pio2f 048B               ___sindf$693 00C0               ___sindf$694 00C4  
             ___sindf$695 00C8            __end_of_pio2_1 1829         ?_lcd_data_byteset 0070  
          _sine_table_gen 15AE       start_initialization 000F        ??_lcd_data_byteset 0021  
             __end_of_isr 000D                  ??_LCD_EN 0075                  ??_LCD_RS 0075  
               __Umul8_16 12F9               __pdataBANK2 014F              ??_Timer_init 0075  
  __end_of_sine_table_gen 1668                 ___fladd@a 004C                 ___fladd@b 0048  
               ___fldiv@a 0048                 ___fldiv@b 004C               __pbssBIGRAM 2328  
               ___cosdf@r 00A0                 ___cosdf@w 00B0                 ___cosdf@x 005C  
               ___cosdf@z 00B4                 ___flmul@a 0032                 ___flmul@b 002E  
             __pbssCOMMON 0076                 ___flsub@a 005C                 ___flsub@b 0060  
               ___latbits 0002             __pcstackBANK0 0020             __pcstackBANK1 00A0  
           __pcstackBANK2 0120                 ___sindf@r 00B8                 ___sindf@s 00CC  
               ___sindf@w 00BC                 ___sindf@x 0064                 ___sindf@z 00D0  
      __end_of_Timer_init 128B          ___lwdiv@dividend 0022                  ?___fladd 0048  
                ?___fldiv 0048                  ?___cosdf 005C                  ?___flneg 0060  
                ?___flmul 002E                  ?___flsub 005C                  ?___fltol 0062  
              ?__Umul8_16 0020                  ?___lwdiv 0020                  ?___sindf 0064  
                _DAC1CON0 0591                  _DAC1REFH 0593                 _lcd_putch 07EF  
         ?_sine_table_gen 0070                 fabsf@F465 0147                  _DAC_init 1249  
        ___lwdiv@quotient 0025                  _T2CLKCON 001E           ___rem_pio2f$692 00CB  
               clear_ram0 1272         DAC_valueset@value 0070                ?_lcd_putch 0070  
               lcd_puts@s 0025             ?_DAC_valueset 0070               ??__Umul8_16 0022  
            ?___rem_pio2f 00B8                  ___xxtofl 1503           ___lwdiv@divisor 0020  
         ___lwdiv@counter 0024                  __ptext10 1668                  __ptext11 0DC5  
                __ptext20 0800                  __ptext12 12F9                  __ptext21 125B  
                __ptext13 0BBD                  __ptext22 1250                  __ptext14 084F  
                __ptext23 0812                  __ptext15 129E                  __ptext24 127E  
                __ptext16 07EF                  __ptext25 1249                  __ptext17 147D  
                __ptext18 12BB                  __ptext27 131D                  __ptext19 128B  
                __ptext28 1242                  _lcd_init 147D                  _lcd_puts 129E  
                _sinf$485 0128                  _sinf$486 012C                  _sinf$688 0132  
    sinf@__xc8_float_word 0124                _LCD_STROBE 0800            ??_DAC_valueset 0070  
                _wave_out 131D                  int$flags 007E                  _wavetype 0078  
               wave_out@i 0077               ??_lcd_putch 0076            __pstringtext10 1835  
          __pstringtext11 1839            __pstringtext12 183D            __pstringtext13 1841  
          __pstringtext14 1845            __pstringtext15 1849            __pstringtext16 184D  
          __pstringtext17 1800            __pstringtext18 0000                  intlevel1 0000  
                sinf@sign 0130          ??_sine_table_gen 00E3             __pstringtext1 1811  
           __pstringtext2 1815             __pstringtext3 1819             __pstringtext4 181D  
           __pstringtext5 1821             __pstringtext6 1825             __pstringtext7 1829  
           __pstringtext8 182D             __pstringtext9 1831    __Umul8_16@multiplicand 0020  
      _sine_table_gen$686 013E        _sine_table_gen$687 0142             ?_lcd_data_set 0070  
           ___fladd@signs 0058              ___fladd@aexp 0059              ___fladd@bexp 005A  
    __Umul8_16@multiplier 0028         __Umul8_16@product 0024               ?_LCD_STROBE 0070  
